

Microchip Technology PIC LITE Macro Assembler V2.00 build -1524193055 
                                                                                               Thu Mar 04 15:41:41 2021

Microchip Technology Omniscient Code Generator v2.00 (Free mode) build 20180527130849
     1  0000                     
      + 0000                     
     2                           ; Version 2.00
     3                           ; Generated 27/05/2018 GMT
     4                           
     5                           ; 
     6                           ; Copyright © 2018, Microchip Technology Inc. and its subsidiaries ("Microchip")
     7                           ; All rights reserved.
     8                           ; 
     9                           ; This software is developed by Microchip Technology Inc. and its subsidiaries ("Microch
                                 ip").
    10                           ; 
    11                           ; Redistribution and use in source and binary forms, with or without modification, are
    12                           ; permitted provided that the following conditions are met:
    13                           ; 
    14                           ;     1. Redistributions of source code must retain the above copyright notice, this lis
                                 t of
    15                           ;        conditions and the following disclaimer.
    16                           ; 
    17                           ;     2. Redistributions in binary form must reproduce the above copyright notice, this 
                                 list
    18                           ;        of conditions and the following disclaimer in the documentation and/or other
    19                           ;        materials provided with the distribution.
    20                           ; 
    21                           ;     3. Microchip's name may not be used to endorse or promote products derived from th
                                 is
    22                           ;        software without specific prior written permission.
    23                           ; 
    24                           ; THIS SOFTWARE IS PROVIDED BY MICROCHIP "AS IS" AND ANY EXPRESS OR IMPLIED WARRANTIES,

    25                           ; INCLUDING, BUT NOT LIMITED TO, THE IMPLIED WARRANTIES OF MERCHANTABILITY AND FITNESS F
                                 OR
    26                           ; PURPOSE ARE DISCLAIMED.  IN NO EVENT SHALL MICROCHIP BE LIABLE FOR ANY DIRECT, INDIREC
                                 T,
    27                           ; INCIDENTAL, SPECIAL, EXEMPLARY, OR CONSEQUENTIAL DAMAGES (INCLUDING BUT NOT LIMITED TO
                                 
    28                           ; PROCUREMENT OF SUBSTITUTE GOODS OR SERVICES; LOSS OF USE, DATA OR PROFITS; OR BUSINESS
                                 
    29                           ; INTERRUPTION) HOWSOEVER CAUSED AND ON ANY THEORY OF LIABILITY, WHETHER IN CONTRACT, ST
                                 RICT
    30                           ; LIABILITY, OR TORT (INCLUDING NEGLIGENCE OR OTHERWISE) ARISING IN ANY WAY OUT OF THE U
                                 SE OF
    31                           ; THIS SOFTWARE, EVEN IF ADVISED OF THE POSSIBILITY OF SUCH DAMAGE.
    32                           ; 
    33                           
    34                           
    35                           ; 
    36                           ; Code-generator required, PIC16F887 Definitions
    37                           ; 
    38  0004                     fsr0 equ 04h
    39  0004                     indf equ 00h
    40  0000                     indf0 equ 00h
    41  0000                     pc equ 02h
    42  0002                     pcl equ 02h
    43  0002                     pclath equ 0Ah
    44  000A                     status equ 03h
    45  0003                     
     2                           opt pagewidth 120
     3  0000                     byte0	macro	val
     4                           	(getbyte(val,0))
     5                           endm
     6  0000                     byte1	macro	val
     7                           	(getbyte(val,1))
     8                           endm
     9  0000                     byte2	macro	val
    10                           	(getbyte(val,2))
    11                           endm
    12  0000                     byte3	macro	val
    13                           	(getbyte(val,3))
    14                           endm
    15  0000                     byte4	macro	val
    16                           	(getbyte(val,4))
    17                           endm
    18  0000                     byte5	macro	val
    19                           	(getbyte(val,5))
    20                           endm
    21  0000                     byte6	macro	val
    22                           	(getbyte(val,6))
    23                           endm
    24  0000                     byte7	macro	val
    25                           	(getbyte(val,7))
    26                           endm
    27  0000                     getword	macro	val,pos
    28                           	(((val) >> (8 * pos)) and 0xffff)
    29                           endm
    30  0000                     word0	macro	val
    31                           	(getword(val,0))
    32                           endm
    33  0000                     word1	macro	val
    34                           	(getword(val,2))
    35                           endm
    36  0000                     word2	macro	val
    37                           	(getword(val,4))
    38                           endm
    39  0000                     word3	macro	val
    40                           	(getword(val,6))
    41                           endm
    42  0000                     gettword	macro	val,pos
    43                           	(((val) >> (8 * pos)) and 0xffffff)
    44                           endm
    45  0000                     tword0	macro	val
    46                           	(gettword(val,0))
    47                           endm
    48  0000                     tword1	macro	val
    49                           	(gettword(val,3))
    50                           endm
    51  0000                     tword2	macro	val
    52                           	(gettword(val,6))
    53                           endm
    54  0000                     getdword	macro	val,pos
    55                           	(((val) >> (8 * pos)) and 0xffffffff)
    56                           endm
    57  0000                     dword0	macro	val
    58                           	(getdword(val,0))
    59                           endm
    60  0000                     dword1	macro	val
    61                           	(getdword(val,4))
    62                           endm
    63  0000                     clrc	macro
    64                           	bcf	3,0
    65                           	endm
    66  0000                     clrz	macro
    67                           	bcf	3,2
    68                           	endm
    69  0000                     setc	macro
    70                           	bsf	3,0
    71                           	endm
    72  0000                     setz	macro
    73                           	bsf	3,2
    74                           	endm
    75  0000                     skipc	macro
    76                           	btfss	3,0
    77                           	endm
    78  0000                     skipz	macro
    79                           	btfss	3,2
    80                           	endm
    81  0000                     skipnc	macro
    82                           	btfsc	3,0
    83                           	endm
    84  0000                     skipnz	macro
    85                           	btfsc	3,2
    86                           	endm
    87  0000                     # 54 "C:\Program Files (x86)\Microchip\xc8\v2.00\pic\include\pic16f887.h"
    88                           INDF equ 00h ;# 
    89  0000                     # 61 "C:\Program Files (x86)\Microchip\xc8\v2.00\pic\include\pic16f887.h"
    90                           TMR0 equ 01h ;# 
    91  0001                     # 68 "C:\Program Files (x86)\Microchip\xc8\v2.00\pic\include\pic16f887.h"
    92                           PCL equ 02h ;# 
    93  0002                     # 75 "C:\Program Files (x86)\Microchip\xc8\v2.00\pic\include\pic16f887.h"
    94                           STATUS equ 03h ;# 
    95  0003                     # 161 "C:\Program Files (x86)\Microchip\xc8\v2.00\pic\include\pic16f887.h"
    96                           FSR equ 04h ;# 
    97  0004                     # 168 "C:\Program Files (x86)\Microchip\xc8\v2.00\pic\include\pic16f887.h"
    98                           PORTA equ 05h ;# 
    99  0005                     # 230 "C:\Program Files (x86)\Microchip\xc8\v2.00\pic\include\pic16f887.h"
   100                           PORTB equ 06h ;# 
   101  0006                     # 292 "C:\Program Files (x86)\Microchip\xc8\v2.00\pic\include\pic16f887.h"
   102                           PORTC equ 07h ;# 
   103  0007                     # 354 "C:\Program Files (x86)\Microchip\xc8\v2.00\pic\include\pic16f887.h"
   104                           PORTD equ 08h ;# 
   105  0008                     # 416 "C:\Program Files (x86)\Microchip\xc8\v2.00\pic\include\pic16f887.h"
   106                           PORTE equ 09h ;# 
   107  0009                     # 454 "C:\Program Files (x86)\Microchip\xc8\v2.00\pic\include\pic16f887.h"
   108                           PCLATH equ 0Ah ;# 
   109  000A                     # 461 "C:\Program Files (x86)\Microchip\xc8\v2.00\pic\include\pic16f887.h"
   110                           INTCON equ 0Bh ;# 
   111  000B                     # 539 "C:\Program Files (x86)\Microchip\xc8\v2.00\pic\include\pic16f887.h"
   112                           PIR1 equ 0Ch ;# 
   113  000C                     # 595 "C:\Program Files (x86)\Microchip\xc8\v2.00\pic\include\pic16f887.h"
   114                           PIR2 equ 0Dh ;# 
   115  000D                     # 652 "C:\Program Files (x86)\Microchip\xc8\v2.00\pic\include\pic16f887.h"
   116                           TMR1 equ 0Eh ;# 
   117  000E                     # 659 "C:\Program Files (x86)\Microchip\xc8\v2.00\pic\include\pic16f887.h"
   118                           TMR1L equ 0Eh ;# 
   119  000E                     # 666 "C:\Program Files (x86)\Microchip\xc8\v2.00\pic\include\pic16f887.h"
   120                           TMR1H equ 0Fh ;# 
   121  000F                     # 673 "C:\Program Files (x86)\Microchip\xc8\v2.00\pic\include\pic16f887.h"
   122                           T1CON equ 010h ;# 
   123  0010                     # 767 "C:\Program Files (x86)\Microchip\xc8\v2.00\pic\include\pic16f887.h"
   124                           TMR2 equ 011h ;# 
   125  0011                     # 774 "C:\Program Files (x86)\Microchip\xc8\v2.00\pic\include\pic16f887.h"
   126                           T2CON equ 012h ;# 
   127  0012                     # 845 "C:\Program Files (x86)\Microchip\xc8\v2.00\pic\include\pic16f887.h"
   128                           SSPBUF equ 013h ;# 
   129  0013                     # 852 "C:\Program Files (x86)\Microchip\xc8\v2.00\pic\include\pic16f887.h"
   130                           SSPCON equ 014h ;# 
   131  0014                     # 922 "C:\Program Files (x86)\Microchip\xc8\v2.00\pic\include\pic16f887.h"
   132                           CCPR1 equ 015h ;# 
   133  0015                     # 929 "C:\Program Files (x86)\Microchip\xc8\v2.00\pic\include\pic16f887.h"
   134                           CCPR1L equ 015h ;# 
   135  0015                     # 936 "C:\Program Files (x86)\Microchip\xc8\v2.00\pic\include\pic16f887.h"
   136                           CCPR1H equ 016h ;# 
   137  0016                     # 943 "C:\Program Files (x86)\Microchip\xc8\v2.00\pic\include\pic16f887.h"
   138                           CCP1CON equ 017h ;# 
   139  0017                     # 1040 "C:\Program Files (x86)\Microchip\xc8\v2.00\pic\include\pic16f887.h"
   140                           RCSTA equ 018h ;# 
   141  0018                     # 1135 "C:\Program Files (x86)\Microchip\xc8\v2.00\pic\include\pic16f887.h"
   142                           TXREG equ 019h ;# 
   143  0019                     # 1142 "C:\Program Files (x86)\Microchip\xc8\v2.00\pic\include\pic16f887.h"
   144                           RCREG equ 01Ah ;# 
   145  001A                     # 1149 "C:\Program Files (x86)\Microchip\xc8\v2.00\pic\include\pic16f887.h"
   146                           CCPR2 equ 01Bh ;# 
   147  001B                     # 1156 "C:\Program Files (x86)\Microchip\xc8\v2.00\pic\include\pic16f887.h"
   148                           CCPR2L equ 01Bh ;# 
   149  001B                     # 1163 "C:\Program Files (x86)\Microchip\xc8\v2.00\pic\include\pic16f887.h"
   150                           CCPR2H equ 01Ch ;# 
   151  001C                     # 1170 "C:\Program Files (x86)\Microchip\xc8\v2.00\pic\include\pic16f887.h"
   152                           CCP2CON equ 01Dh ;# 
   153  001D                     # 1240 "C:\Program Files (x86)\Microchip\xc8\v2.00\pic\include\pic16f887.h"
   154                           ADRESH equ 01Eh ;# 
   155  001E                     # 1247 "C:\Program Files (x86)\Microchip\xc8\v2.00\pic\include\pic16f887.h"
   156                           ADCON0 equ 01Fh ;# 
   157  001F                     # 1348 "C:\Program Files (x86)\Microchip\xc8\v2.00\pic\include\pic16f887.h"
   158                           OPTION_REG equ 081h ;# 
   159  0081                     # 1418 "C:\Program Files (x86)\Microchip\xc8\v2.00\pic\include\pic16f887.h"
   160                           TRISA equ 085h ;# 
   161  0085                     # 1480 "C:\Program Files (x86)\Microchip\xc8\v2.00\pic\include\pic16f887.h"
   162                           TRISB equ 086h ;# 
   163  0086                     # 1542 "C:\Program Files (x86)\Microchip\xc8\v2.00\pic\include\pic16f887.h"
   164                           TRISC equ 087h ;# 
   165  0087                     # 1604 "C:\Program Files (x86)\Microchip\xc8\v2.00\pic\include\pic16f887.h"
   166                           TRISD equ 088h ;# 
   167  0088                     # 1666 "C:\Program Files (x86)\Microchip\xc8\v2.00\pic\include\pic16f887.h"
   168                           TRISE equ 089h ;# 
   169  0089                     # 1704 "C:\Program Files (x86)\Microchip\xc8\v2.00\pic\include\pic16f887.h"
   170                           PIE1 equ 08Ch ;# 
   171  008C                     # 1760 "C:\Program Files (x86)\Microchip\xc8\v2.00\pic\include\pic16f887.h"
   172                           PIE2 equ 08Dh ;# 
   173  008D                     # 1817 "C:\Program Files (x86)\Microchip\xc8\v2.00\pic\include\pic16f887.h"
   174                           PCON equ 08Eh ;# 
   175  008E                     # 1864 "C:\Program Files (x86)\Microchip\xc8\v2.00\pic\include\pic16f887.h"
   176                           OSCCON equ 08Fh ;# 
   177  008F                     # 1929 "C:\Program Files (x86)\Microchip\xc8\v2.00\pic\include\pic16f887.h"
   178                           OSCTUNE equ 090h ;# 
   179  0090                     # 1981 "C:\Program Files (x86)\Microchip\xc8\v2.00\pic\include\pic16f887.h"
   180                           SSPCON2 equ 091h ;# 
   181  0091                     # 2043 "C:\Program Files (x86)\Microchip\xc8\v2.00\pic\include\pic16f887.h"
   182                           PR2 equ 092h ;# 
   183  0092                     # 2050 "C:\Program Files (x86)\Microchip\xc8\v2.00\pic\include\pic16f887.h"
   184                           SSPADD equ 093h ;# 
   185  0093                     # 2057 "C:\Program Files (x86)\Microchip\xc8\v2.00\pic\include\pic16f887.h"
   186                           SSPMSK equ 093h ;# 
   187  0093                     # 2062 "C:\Program Files (x86)\Microchip\xc8\v2.00\pic\include\pic16f887.h"
   188                           MSK equ 093h ;# 
   189  0093                     # 2179 "C:\Program Files (x86)\Microchip\xc8\v2.00\pic\include\pic16f887.h"
   190                           SSPSTAT equ 094h ;# 
   191  0094                     # 2348 "C:\Program Files (x86)\Microchip\xc8\v2.00\pic\include\pic16f887.h"
   192                           WPUB equ 095h ;# 
   193  0095                     # 2418 "C:\Program Files (x86)\Microchip\xc8\v2.00\pic\include\pic16f887.h"
   194                           IOCB equ 096h ;# 
   195  0096                     # 2488 "C:\Program Files (x86)\Microchip\xc8\v2.00\pic\include\pic16f887.h"
   196                           VRCON equ 097h ;# 
   197  0097                     # 2558 "C:\Program Files (x86)\Microchip\xc8\v2.00\pic\include\pic16f887.h"
   198                           TXSTA equ 098h ;# 
   199  0098                     # 2644 "C:\Program Files (x86)\Microchip\xc8\v2.00\pic\include\pic16f887.h"
   200                           SPBRG equ 099h ;# 
   201  0099                     # 2706 "C:\Program Files (x86)\Microchip\xc8\v2.00\pic\include\pic16f887.h"
   202                           SPBRGH equ 09Ah ;# 
   203  009A                     # 2776 "C:\Program Files (x86)\Microchip\xc8\v2.00\pic\include\pic16f887.h"
   204                           PWM1CON equ 09Bh ;# 
   205  009B                     # 2846 "C:\Program Files (x86)\Microchip\xc8\v2.00\pic\include\pic16f887.h"
   206                           ECCPAS equ 09Ch ;# 
   207  009C                     # 2928 "C:\Program Files (x86)\Microchip\xc8\v2.00\pic\include\pic16f887.h"
   208                           PSTRCON equ 09Dh ;# 
   209  009D                     # 2972 "C:\Program Files (x86)\Microchip\xc8\v2.00\pic\include\pic16f887.h"
   210                           ADRESL equ 09Eh ;# 
   211  009E                     # 2979 "C:\Program Files (x86)\Microchip\xc8\v2.00\pic\include\pic16f887.h"
   212                           ADCON1 equ 09Fh ;# 
   213  009F                     # 3013 "C:\Program Files (x86)\Microchip\xc8\v2.00\pic\include\pic16f887.h"
   214                           WDTCON equ 0105h ;# 
   215  0105                     # 3066 "C:\Program Files (x86)\Microchip\xc8\v2.00\pic\include\pic16f887.h"
   216                           CM1CON0 equ 0107h ;# 
   217  0107                     # 3131 "C:\Program Files (x86)\Microchip\xc8\v2.00\pic\include\pic16f887.h"
   218                           CM2CON0 equ 0108h ;# 
   219  0108                     # 3196 "C:\Program Files (x86)\Microchip\xc8\v2.00\pic\include\pic16f887.h"
   220                           CM2CON1 equ 0109h ;# 
   221  0109                     # 3247 "C:\Program Files (x86)\Microchip\xc8\v2.00\pic\include\pic16f887.h"
   222                           EEDATA equ 010Ch ;# 
   223  010C                     # 3252 "C:\Program Files (x86)\Microchip\xc8\v2.00\pic\include\pic16f887.h"
   224                           EEDAT equ 010Ch ;# 
   225  010C                     # 3259 "C:\Program Files (x86)\Microchip\xc8\v2.00\pic\include\pic16f887.h"
   226                           EEADR equ 010Dh ;# 
   227  010D                     # 3266 "C:\Program Files (x86)\Microchip\xc8\v2.00\pic\include\pic16f887.h"
   228                           EEDATH equ 010Eh ;# 
   229  010E                     # 3273 "C:\Program Files (x86)\Microchip\xc8\v2.00\pic\include\pic16f887.h"
   230                           EEADRH equ 010Fh ;# 
   231  010F                     # 3280 "C:\Program Files (x86)\Microchip\xc8\v2.00\pic\include\pic16f887.h"
   232                           SRCON equ 0185h ;# 
   233  0185                     # 3337 "C:\Program Files (x86)\Microchip\xc8\v2.00\pic\include\pic16f887.h"
   234                           BAUDCTL equ 0187h ;# 
   235  0187                     # 3389 "C:\Program Files (x86)\Microchip\xc8\v2.00\pic\include\pic16f887.h"
   236                           ANSEL equ 0188h ;# 
   237  0188                     # 3451 "C:\Program Files (x86)\Microchip\xc8\v2.00\pic\include\pic16f887.h"
   238                           ANSELH equ 0189h ;# 
   239  0189                     # 3501 "C:\Program Files (x86)\Microchip\xc8\v2.00\pic\include\pic16f887.h"
   240                           EECON1 equ 018Ch ;# 
   241  018C                     # 3546 "C:\Program Files (x86)\Microchip\xc8\v2.00\pic\include\pic16f887.h"
   242                           EECON2 equ 018Dh ;# 
   243  018D                     # 54 "C:\Program Files (x86)\Microchip\xc8\v2.00\pic\include\pic16f887.h"
   244                           INDF equ 00h ;# 
   245  0000                     # 61 "C:\Program Files (x86)\Microchip\xc8\v2.00\pic\include\pic16f887.h"
   246                           TMR0 equ 01h ;# 
   247  0001                     # 68 "C:\Program Files (x86)\Microchip\xc8\v2.00\pic\include\pic16f887.h"
   248                           PCL equ 02h ;# 
   249  0002                     # 75 "C:\Program Files (x86)\Microchip\xc8\v2.00\pic\include\pic16f887.h"
   250                           STATUS equ 03h ;# 
   251  0003                     # 161 "C:\Program Files (x86)\Microchip\xc8\v2.00\pic\include\pic16f887.h"
   252                           FSR equ 04h ;# 
   253  0004                     # 168 "C:\Program Files (x86)\Microchip\xc8\v2.00\pic\include\pic16f887.h"
   254                           PORTA equ 05h ;# 
   255  0005                     # 230 "C:\Program Files (x86)\Microchip\xc8\v2.00\pic\include\pic16f887.h"
   256                           PORTB equ 06h ;# 
   257  0006                     # 292 "C:\Program Files (x86)\Microchip\xc8\v2.00\pic\include\pic16f887.h"
   258                           PORTC equ 07h ;# 
   259  0007                     # 354 "C:\Program Files (x86)\Microchip\xc8\v2.00\pic\include\pic16f887.h"
   260                           PORTD equ 08h ;# 
   261  0008                     # 416 "C:\Program Files (x86)\Microchip\xc8\v2.00\pic\include\pic16f887.h"
   262                           PORTE equ 09h ;# 
   263  0009                     # 454 "C:\Program Files (x86)\Microchip\xc8\v2.00\pic\include\pic16f887.h"
   264                           PCLATH equ 0Ah ;# 
   265  000A                     # 461 "C:\Program Files (x86)\Microchip\xc8\v2.00\pic\include\pic16f887.h"
   266                           INTCON equ 0Bh ;# 
   267  000B                     # 539 "C:\Program Files (x86)\Microchip\xc8\v2.00\pic\include\pic16f887.h"
   268                           PIR1 equ 0Ch ;# 
   269  000C                     # 595 "C:\Program Files (x86)\Microchip\xc8\v2.00\pic\include\pic16f887.h"
   270                           PIR2 equ 0Dh ;# 
   271  000D                     # 652 "C:\Program Files (x86)\Microchip\xc8\v2.00\pic\include\pic16f887.h"
   272                           TMR1 equ 0Eh ;# 
   273  000E                     # 659 "C:\Program Files (x86)\Microchip\xc8\v2.00\pic\include\pic16f887.h"
   274                           TMR1L equ 0Eh ;# 
   275  000E                     # 666 "C:\Program Files (x86)\Microchip\xc8\v2.00\pic\include\pic16f887.h"
   276                           TMR1H equ 0Fh ;# 
   277  000F                     # 673 "C:\Program Files (x86)\Microchip\xc8\v2.00\pic\include\pic16f887.h"
   278                           T1CON equ 010h ;# 
   279  0010                     # 767 "C:\Program Files (x86)\Microchip\xc8\v2.00\pic\include\pic16f887.h"
   280                           TMR2 equ 011h ;# 
   281  0011                     # 774 "C:\Program Files (x86)\Microchip\xc8\v2.00\pic\include\pic16f887.h"
   282                           T2CON equ 012h ;# 
   283  0012                     # 845 "C:\Program Files (x86)\Microchip\xc8\v2.00\pic\include\pic16f887.h"
   284                           SSPBUF equ 013h ;# 
   285  0013                     # 852 "C:\Program Files (x86)\Microchip\xc8\v2.00\pic\include\pic16f887.h"
   286                           SSPCON equ 014h ;# 
   287  0014                     # 922 "C:\Program Files (x86)\Microchip\xc8\v2.00\pic\include\pic16f887.h"
   288                           CCPR1 equ 015h ;# 
   289  0015                     # 929 "C:\Program Files (x86)\Microchip\xc8\v2.00\pic\include\pic16f887.h"
   290                           CCPR1L equ 015h ;# 
   291  0015                     # 936 "C:\Program Files (x86)\Microchip\xc8\v2.00\pic\include\pic16f887.h"
   292                           CCPR1H equ 016h ;# 
   293  0016                     # 943 "C:\Program Files (x86)\Microchip\xc8\v2.00\pic\include\pic16f887.h"
   294                           CCP1CON equ 017h ;# 
   295  0017                     # 1040 "C:\Program Files (x86)\Microchip\xc8\v2.00\pic\include\pic16f887.h"
   296                           RCSTA equ 018h ;# 
   297  0018                     # 1135 "C:\Program Files (x86)\Microchip\xc8\v2.00\pic\include\pic16f887.h"
   298                           TXREG equ 019h ;# 
   299  0019                     # 1142 "C:\Program Files (x86)\Microchip\xc8\v2.00\pic\include\pic16f887.h"
   300                           RCREG equ 01Ah ;# 
   301  001A                     # 1149 "C:\Program Files (x86)\Microchip\xc8\v2.00\pic\include\pic16f887.h"
   302                           CCPR2 equ 01Bh ;# 
   303  001B                     # 1156 "C:\Program Files (x86)\Microchip\xc8\v2.00\pic\include\pic16f887.h"
   304                           CCPR2L equ 01Bh ;# 
   305  001B                     # 1163 "C:\Program Files (x86)\Microchip\xc8\v2.00\pic\include\pic16f887.h"
   306                           CCPR2H equ 01Ch ;# 
   307  001C                     # 1170 "C:\Program Files (x86)\Microchip\xc8\v2.00\pic\include\pic16f887.h"
   308                           CCP2CON equ 01Dh ;# 
   309  001D                     # 1240 "C:\Program Files (x86)\Microchip\xc8\v2.00\pic\include\pic16f887.h"
   310                           ADRESH equ 01Eh ;# 
   311  001E                     # 1247 "C:\Program Files (x86)\Microchip\xc8\v2.00\pic\include\pic16f887.h"
   312                           ADCON0 equ 01Fh ;# 
   313  001F                     # 1348 "C:\Program Files (x86)\Microchip\xc8\v2.00\pic\include\pic16f887.h"
   314                           OPTION_REG equ 081h ;# 
   315  0081                     # 1418 "C:\Program Files (x86)\Microchip\xc8\v2.00\pic\include\pic16f887.h"
   316                           TRISA equ 085h ;# 
   317  0085                     # 1480 "C:\Program Files (x86)\Microchip\xc8\v2.00\pic\include\pic16f887.h"
   318                           TRISB equ 086h ;# 
   319  0086                     # 1542 "C:\Program Files (x86)\Microchip\xc8\v2.00\pic\include\pic16f887.h"
   320                           TRISC equ 087h ;# 
   321  0087                     # 1604 "C:\Program Files (x86)\Microchip\xc8\v2.00\pic\include\pic16f887.h"
   322                           TRISD equ 088h ;# 
   323  0088                     # 1666 "C:\Program Files (x86)\Microchip\xc8\v2.00\pic\include\pic16f887.h"
   324                           TRISE equ 089h ;# 
   325  0089                     # 1704 "C:\Program Files (x86)\Microchip\xc8\v2.00\pic\include\pic16f887.h"
   326                           PIE1 equ 08Ch ;# 
   327  008C                     # 1760 "C:\Program Files (x86)\Microchip\xc8\v2.00\pic\include\pic16f887.h"
   328                           PIE2 equ 08Dh ;# 
   329  008D                     # 1817 "C:\Program Files (x86)\Microchip\xc8\v2.00\pic\include\pic16f887.h"
   330                           PCON equ 08Eh ;# 
   331  008E                     # 1864 "C:\Program Files (x86)\Microchip\xc8\v2.00\pic\include\pic16f887.h"
   332                           OSCCON equ 08Fh ;# 
   333  008F                     # 1929 "C:\Program Files (x86)\Microchip\xc8\v2.00\pic\include\pic16f887.h"
   334                           OSCTUNE equ 090h ;# 
   335  0090                     # 1981 "C:\Program Files (x86)\Microchip\xc8\v2.00\pic\include\pic16f887.h"
   336                           SSPCON2 equ 091h ;# 
   337  0091                     # 2043 "C:\Program Files (x86)\Microchip\xc8\v2.00\pic\include\pic16f887.h"
   338                           PR2 equ 092h ;# 
   339  0092                     # 2050 "C:\Program Files (x86)\Microchip\xc8\v2.00\pic\include\pic16f887.h"
   340                           SSPADD equ 093h ;# 
   341  0093                     # 2057 "C:\Program Files (x86)\Microchip\xc8\v2.00\pic\include\pic16f887.h"
   342                           SSPMSK equ 093h ;# 
   343  0093                     # 2062 "C:\Program Files (x86)\Microchip\xc8\v2.00\pic\include\pic16f887.h"
   344                           MSK equ 093h ;# 
   345  0093                     # 2179 "C:\Program Files (x86)\Microchip\xc8\v2.00\pic\include\pic16f887.h"
   346                           SSPSTAT equ 094h ;# 
   347  0094                     # 2348 "C:\Program Files (x86)\Microchip\xc8\v2.00\pic\include\pic16f887.h"
   348                           WPUB equ 095h ;# 
   349  0095                     # 2418 "C:\Program Files (x86)\Microchip\xc8\v2.00\pic\include\pic16f887.h"
   350                           IOCB equ 096h ;# 
   351  0096                     # 2488 "C:\Program Files (x86)\Microchip\xc8\v2.00\pic\include\pic16f887.h"
   352                           VRCON equ 097h ;# 
   353  0097                     # 2558 "C:\Program Files (x86)\Microchip\xc8\v2.00\pic\include\pic16f887.h"
   354                           TXSTA equ 098h ;# 
   355  0098                     # 2644 "C:\Program Files (x86)\Microchip\xc8\v2.00\pic\include\pic16f887.h"
   356                           SPBRG equ 099h ;# 
   357  0099                     # 2706 "C:\Program Files (x86)\Microchip\xc8\v2.00\pic\include\pic16f887.h"
   358                           SPBRGH equ 09Ah ;# 
   359  009A                     # 2776 "C:\Program Files (x86)\Microchip\xc8\v2.00\pic\include\pic16f887.h"
   360                           PWM1CON equ 09Bh ;# 
   361  009B                     # 2846 "C:\Program Files (x86)\Microchip\xc8\v2.00\pic\include\pic16f887.h"
   362                           ECCPAS equ 09Ch ;# 
   363  009C                     # 2928 "C:\Program Files (x86)\Microchip\xc8\v2.00\pic\include\pic16f887.h"
   364                           PSTRCON equ 09Dh ;# 
   365  009D                     # 2972 "C:\Program Files (x86)\Microchip\xc8\v2.00\pic\include\pic16f887.h"
   366                           ADRESL equ 09Eh ;# 
   367  009E                     # 2979 "C:\Program Files (x86)\Microchip\xc8\v2.00\pic\include\pic16f887.h"
   368                           ADCON1 equ 09Fh ;# 
   369  009F                     # 3013 "C:\Program Files (x86)\Microchip\xc8\v2.00\pic\include\pic16f887.h"
   370                           WDTCON equ 0105h ;# 
   371  0105                     # 3066 "C:\Program Files (x86)\Microchip\xc8\v2.00\pic\include\pic16f887.h"
   372                           CM1CON0 equ 0107h ;# 
   373  0107                     # 3131 "C:\Program Files (x86)\Microchip\xc8\v2.00\pic\include\pic16f887.h"
   374                           CM2CON0 equ 0108h ;# 
   375  0108                     # 3196 "C:\Program Files (x86)\Microchip\xc8\v2.00\pic\include\pic16f887.h"
   376                           CM2CON1 equ 0109h ;# 
   377  0109                     # 3247 "C:\Program Files (x86)\Microchip\xc8\v2.00\pic\include\pic16f887.h"
   378                           EEDATA equ 010Ch ;# 
   379  010C                     # 3252 "C:\Program Files (x86)\Microchip\xc8\v2.00\pic\include\pic16f887.h"
   380                           EEDAT equ 010Ch ;# 
   381  010C                     # 3259 "C:\Program Files (x86)\Microchip\xc8\v2.00\pic\include\pic16f887.h"
   382                           EEADR equ 010Dh ;# 
   383  010D                     # 3266 "C:\Program Files (x86)\Microchip\xc8\v2.00\pic\include\pic16f887.h"
   384                           EEDATH equ 010Eh ;# 
   385  010E                     # 3273 "C:\Program Files (x86)\Microchip\xc8\v2.00\pic\include\pic16f887.h"
   386                           EEADRH equ 010Fh ;# 
   387  010F                     # 3280 "C:\Program Files (x86)\Microchip\xc8\v2.00\pic\include\pic16f887.h"
   388                           SRCON equ 0185h ;# 
   389  0185                     # 3337 "C:\Program Files (x86)\Microchip\xc8\v2.00\pic\include\pic16f887.h"
   390                           BAUDCTL equ 0187h ;# 
   391  0187                     # 3389 "C:\Program Files (x86)\Microchip\xc8\v2.00\pic\include\pic16f887.h"
   392                           ANSEL equ 0188h ;# 
   393  0188                     # 3451 "C:\Program Files (x86)\Microchip\xc8\v2.00\pic\include\pic16f887.h"
   394                           ANSELH equ 0189h ;# 
   395  0189                     # 3501 "C:\Program Files (x86)\Microchip\xc8\v2.00\pic\include\pic16f887.h"
   396                           EECON1 equ 018Ch ;# 
   397  018C                     # 3546 "C:\Program Files (x86)\Microchip\xc8\v2.00\pic\include\pic16f887.h"
   398                           EECON2 equ 018Dh ;# 
   399  018D                     # 54 "C:\Program Files (x86)\Microchip\xc8\v2.00\pic\include\pic16f887.h"
   400                           INDF equ 00h ;# 
   401  0000                     # 61 "C:\Program Files (x86)\Microchip\xc8\v2.00\pic\include\pic16f887.h"
   402                           TMR0 equ 01h ;# 
   403  0001                     # 68 "C:\Program Files (x86)\Microchip\xc8\v2.00\pic\include\pic16f887.h"
   404                           PCL equ 02h ;# 
   405  0002                     # 75 "C:\Program Files (x86)\Microchip\xc8\v2.00\pic\include\pic16f887.h"
   406                           STATUS equ 03h ;# 
   407  0003                     # 161 "C:\Program Files (x86)\Microchip\xc8\v2.00\pic\include\pic16f887.h"
   408                           FSR equ 04h ;# 
   409  0004                     # 168 "C:\Program Files (x86)\Microchip\xc8\v2.00\pic\include\pic16f887.h"
   410                           PORTA equ 05h ;# 
   411  0005                     # 230 "C:\Program Files (x86)\Microchip\xc8\v2.00\pic\include\pic16f887.h"
   412                           PORTB equ 06h ;# 
   413  0006                     # 292 "C:\Program Files (x86)\Microchip\xc8\v2.00\pic\include\pic16f887.h"
   414                           PORTC equ 07h ;# 
   415  0007                     # 354 "C:\Program Files (x86)\Microchip\xc8\v2.00\pic\include\pic16f887.h"
   416                           PORTD equ 08h ;# 
   417  0008                     # 416 "C:\Program Files (x86)\Microchip\xc8\v2.00\pic\include\pic16f887.h"
   418                           PORTE equ 09h ;# 
   419  0009                     # 454 "C:\Program Files (x86)\Microchip\xc8\v2.00\pic\include\pic16f887.h"
   420                           PCLATH equ 0Ah ;# 
   421  000A                     # 461 "C:\Program Files (x86)\Microchip\xc8\v2.00\pic\include\pic16f887.h"
   422                           INTCON equ 0Bh ;# 
   423  000B                     # 539 "C:\Program Files (x86)\Microchip\xc8\v2.00\pic\include\pic16f887.h"
   424                           PIR1 equ 0Ch ;# 
   425  000C                     # 595 "C:\Program Files (x86)\Microchip\xc8\v2.00\pic\include\pic16f887.h"
   426                           PIR2 equ 0Dh ;# 
   427  000D                     # 652 "C:\Program Files (x86)\Microchip\xc8\v2.00\pic\include\pic16f887.h"
   428                           TMR1 equ 0Eh ;# 
   429  000E                     # 659 "C:\Program Files (x86)\Microchip\xc8\v2.00\pic\include\pic16f887.h"
   430                           TMR1L equ 0Eh ;# 
   431  000E                     # 666 "C:\Program Files (x86)\Microchip\xc8\v2.00\pic\include\pic16f887.h"
   432                           TMR1H equ 0Fh ;# 
   433  000F                     # 673 "C:\Program Files (x86)\Microchip\xc8\v2.00\pic\include\pic16f887.h"
   434                           T1CON equ 010h ;# 
   435  0010                     # 767 "C:\Program Files (x86)\Microchip\xc8\v2.00\pic\include\pic16f887.h"
   436                           TMR2 equ 011h ;# 
   437  0011                     # 774 "C:\Program Files (x86)\Microchip\xc8\v2.00\pic\include\pic16f887.h"
   438                           T2CON equ 012h ;# 
   439  0012                     # 845 "C:\Program Files (x86)\Microchip\xc8\v2.00\pic\include\pic16f887.h"
   440                           SSPBUF equ 013h ;# 
   441  0013                     # 852 "C:\Program Files (x86)\Microchip\xc8\v2.00\pic\include\pic16f887.h"
   442                           SSPCON equ 014h ;# 
   443  0014                     # 922 "C:\Program Files (x86)\Microchip\xc8\v2.00\pic\include\pic16f887.h"
   444                           CCPR1 equ 015h ;# 
   445  0015                     # 929 "C:\Program Files (x86)\Microchip\xc8\v2.00\pic\include\pic16f887.h"
   446                           CCPR1L equ 015h ;# 
   447  0015                     # 936 "C:\Program Files (x86)\Microchip\xc8\v2.00\pic\include\pic16f887.h"
   448                           CCPR1H equ 016h ;# 
   449  0016                     # 943 "C:\Program Files (x86)\Microchip\xc8\v2.00\pic\include\pic16f887.h"
   450                           CCP1CON equ 017h ;# 
   451  0017                     # 1040 "C:\Program Files (x86)\Microchip\xc8\v2.00\pic\include\pic16f887.h"
   452                           RCSTA equ 018h ;# 
   453  0018                     # 1135 "C:\Program Files (x86)\Microchip\xc8\v2.00\pic\include\pic16f887.h"
   454                           TXREG equ 019h ;# 
   455  0019                     # 1142 "C:\Program Files (x86)\Microchip\xc8\v2.00\pic\include\pic16f887.h"
   456                           RCREG equ 01Ah ;# 
   457  001A                     # 1149 "C:\Program Files (x86)\Microchip\xc8\v2.00\pic\include\pic16f887.h"
   458                           CCPR2 equ 01Bh ;# 
   459  001B                     # 1156 "C:\Program Files (x86)\Microchip\xc8\v2.00\pic\include\pic16f887.h"
   460                           CCPR2L equ 01Bh ;# 
   461  001B                     # 1163 "C:\Program Files (x86)\Microchip\xc8\v2.00\pic\include\pic16f887.h"
   462                           CCPR2H equ 01Ch ;# 
   463  001C                     # 1170 "C:\Program Files (x86)\Microchip\xc8\v2.00\pic\include\pic16f887.h"
   464                           CCP2CON equ 01Dh ;# 
   465  001D                     # 1240 "C:\Program Files (x86)\Microchip\xc8\v2.00\pic\include\pic16f887.h"
   466                           ADRESH equ 01Eh ;# 
   467  001E                     # 1247 "C:\Program Files (x86)\Microchip\xc8\v2.00\pic\include\pic16f887.h"
   468                           ADCON0 equ 01Fh ;# 
   469  001F                     # 1348 "C:\Program Files (x86)\Microchip\xc8\v2.00\pic\include\pic16f887.h"
   470                           OPTION_REG equ 081h ;# 
   471  0081                     # 1418 "C:\Program Files (x86)\Microchip\xc8\v2.00\pic\include\pic16f887.h"
   472                           TRISA equ 085h ;# 
   473  0085                     # 1480 "C:\Program Files (x86)\Microchip\xc8\v2.00\pic\include\pic16f887.h"
   474                           TRISB equ 086h ;# 
   475  0086                     # 1542 "C:\Program Files (x86)\Microchip\xc8\v2.00\pic\include\pic16f887.h"
   476                           TRISC equ 087h ;# 
   477  0087                     # 1604 "C:\Program Files (x86)\Microchip\xc8\v2.00\pic\include\pic16f887.h"
   478                           TRISD equ 088h ;# 
   479  0088                     # 1666 "C:\Program Files (x86)\Microchip\xc8\v2.00\pic\include\pic16f887.h"
   480                           TRISE equ 089h ;# 
   481  0089                     # 1704 "C:\Program Files (x86)\Microchip\xc8\v2.00\pic\include\pic16f887.h"
   482                           PIE1 equ 08Ch ;# 
   483  008C                     # 1760 "C:\Program Files (x86)\Microchip\xc8\v2.00\pic\include\pic16f887.h"
   484                           PIE2 equ 08Dh ;# 
   485  008D                     # 1817 "C:\Program Files (x86)\Microchip\xc8\v2.00\pic\include\pic16f887.h"
   486                           PCON equ 08Eh ;# 
   487  008E                     # 1864 "C:\Program Files (x86)\Microchip\xc8\v2.00\pic\include\pic16f887.h"
   488                           OSCCON equ 08Fh ;# 
   489  008F                     # 1929 "C:\Program Files (x86)\Microchip\xc8\v2.00\pic\include\pic16f887.h"
   490                           OSCTUNE equ 090h ;# 
   491  0090                     # 1981 "C:\Program Files (x86)\Microchip\xc8\v2.00\pic\include\pic16f887.h"
   492                           SSPCON2 equ 091h ;# 
   493  0091                     # 2043 "C:\Program Files (x86)\Microchip\xc8\v2.00\pic\include\pic16f887.h"
   494                           PR2 equ 092h ;# 
   495  0092                     # 2050 "C:\Program Files (x86)\Microchip\xc8\v2.00\pic\include\pic16f887.h"
   496                           SSPADD equ 093h ;# 
   497  0093                     # 2057 "C:\Program Files (x86)\Microchip\xc8\v2.00\pic\include\pic16f887.h"
   498                           SSPMSK equ 093h ;# 
   499  0093                     # 2062 "C:\Program Files (x86)\Microchip\xc8\v2.00\pic\include\pic16f887.h"
   500                           MSK equ 093h ;# 
   501  0093                     # 2179 "C:\Program Files (x86)\Microchip\xc8\v2.00\pic\include\pic16f887.h"
   502                           SSPSTAT equ 094h ;# 
   503  0094                     # 2348 "C:\Program Files (x86)\Microchip\xc8\v2.00\pic\include\pic16f887.h"
   504                           WPUB equ 095h ;# 
   505  0095                     # 2418 "C:\Program Files (x86)\Microchip\xc8\v2.00\pic\include\pic16f887.h"
   506                           IOCB equ 096h ;# 
   507  0096                     # 2488 "C:\Program Files (x86)\Microchip\xc8\v2.00\pic\include\pic16f887.h"
   508                           VRCON equ 097h ;# 
   509  0097                     # 2558 "C:\Program Files (x86)\Microchip\xc8\v2.00\pic\include\pic16f887.h"
   510                           TXSTA equ 098h ;# 
   511  0098                     # 2644 "C:\Program Files (x86)\Microchip\xc8\v2.00\pic\include\pic16f887.h"
   512                           SPBRG equ 099h ;# 
   513  0099                     # 2706 "C:\Program Files (x86)\Microchip\xc8\v2.00\pic\include\pic16f887.h"
   514                           SPBRGH equ 09Ah ;# 
   515  009A                     # 2776 "C:\Program Files (x86)\Microchip\xc8\v2.00\pic\include\pic16f887.h"
   516                           PWM1CON equ 09Bh ;# 
   517  009B                     # 2846 "C:\Program Files (x86)\Microchip\xc8\v2.00\pic\include\pic16f887.h"
   518                           ECCPAS equ 09Ch ;# 
   519  009C                     # 2928 "C:\Program Files (x86)\Microchip\xc8\v2.00\pic\include\pic16f887.h"
   520                           PSTRCON equ 09Dh ;# 
   521  009D                     # 2972 "C:\Program Files (x86)\Microchip\xc8\v2.00\pic\include\pic16f887.h"
   522                           ADRESL equ 09Eh ;# 
   523  009E                     # 2979 "C:\Program Files (x86)\Microchip\xc8\v2.00\pic\include\pic16f887.h"
   524                           ADCON1 equ 09Fh ;# 
   525  009F                     # 3013 "C:\Program Files (x86)\Microchip\xc8\v2.00\pic\include\pic16f887.h"
   526                           WDTCON equ 0105h ;# 
   527  0105                     # 3066 "C:\Program Files (x86)\Microchip\xc8\v2.00\pic\include\pic16f887.h"
   528                           CM1CON0 equ 0107h ;# 
   529  0107                     # 3131 "C:\Program Files (x86)\Microchip\xc8\v2.00\pic\include\pic16f887.h"
   530                           CM2CON0 equ 0108h ;# 
   531  0108                     # 3196 "C:\Program Files (x86)\Microchip\xc8\v2.00\pic\include\pic16f887.h"
   532                           CM2CON1 equ 0109h ;# 
   533  0109                     # 3247 "C:\Program Files (x86)\Microchip\xc8\v2.00\pic\include\pic16f887.h"
   534                           EEDATA equ 010Ch ;# 
   535  010C                     # 3252 "C:\Program Files (x86)\Microchip\xc8\v2.00\pic\include\pic16f887.h"
   536                           EEDAT equ 010Ch ;# 
   537  010C                     # 3259 "C:\Program Files (x86)\Microchip\xc8\v2.00\pic\include\pic16f887.h"
   538                           EEADR equ 010Dh ;# 
   539  010D                     # 3266 "C:\Program Files (x86)\Microchip\xc8\v2.00\pic\include\pic16f887.h"
   540                           EEDATH equ 010Eh ;# 
   541  010E                     # 3273 "C:\Program Files (x86)\Microchip\xc8\v2.00\pic\include\pic16f887.h"
   542                           EEADRH equ 010Fh ;# 
   543  010F                     # 3280 "C:\Program Files (x86)\Microchip\xc8\v2.00\pic\include\pic16f887.h"
   544                           SRCON equ 0185h ;# 
   545  0185                     # 3337 "C:\Program Files (x86)\Microchip\xc8\v2.00\pic\include\pic16f887.h"
   546                           BAUDCTL equ 0187h ;# 
   547  0187                     # 3389 "C:\Program Files (x86)\Microchip\xc8\v2.00\pic\include\pic16f887.h"
   548                           ANSEL equ 0188h ;# 
   549  0188                     # 3451 "C:\Program Files (x86)\Microchip\xc8\v2.00\pic\include\pic16f887.h"
   550                           ANSELH equ 0189h ;# 
   551  0189                     # 3501 "C:\Program Files (x86)\Microchip\xc8\v2.00\pic\include\pic16f887.h"
   552                           EECON1 equ 018Ch ;# 
   553  018C                     # 3546 "C:\Program Files (x86)\Microchip\xc8\v2.00\pic\include\pic16f887.h"
   554                           EECON2 equ 018Dh ;# 
   555  018D                     # 54 "C:\Program Files (x86)\Microchip\xc8\v2.00\pic\include\pic16f887.h"
   556                           INDF equ 00h ;# 
   557  0000                     # 61 "C:\Program Files (x86)\Microchip\xc8\v2.00\pic\include\pic16f887.h"
   558                           TMR0 equ 01h ;# 
   559  0001                     # 68 "C:\Program Files (x86)\Microchip\xc8\v2.00\pic\include\pic16f887.h"
   560                           PCL equ 02h ;# 
   561  0002                     # 75 "C:\Program Files (x86)\Microchip\xc8\v2.00\pic\include\pic16f887.h"
   562                           STATUS equ 03h ;# 
   563  0003                     # 161 "C:\Program Files (x86)\Microchip\xc8\v2.00\pic\include\pic16f887.h"
   564                           FSR equ 04h ;# 
   565  0004                     # 168 "C:\Program Files (x86)\Microchip\xc8\v2.00\pic\include\pic16f887.h"
   566                           PORTA equ 05h ;# 
   567  0005                     # 230 "C:\Program Files (x86)\Microchip\xc8\v2.00\pic\include\pic16f887.h"
   568                           PORTB equ 06h ;# 
   569  0006                     # 292 "C:\Program Files (x86)\Microchip\xc8\v2.00\pic\include\pic16f887.h"
   570                           PORTC equ 07h ;# 
   571  0007                     # 354 "C:\Program Files (x86)\Microchip\xc8\v2.00\pic\include\pic16f887.h"
   572                           PORTD equ 08h ;# 
   573  0008                     # 416 "C:\Program Files (x86)\Microchip\xc8\v2.00\pic\include\pic16f887.h"
   574                           PORTE equ 09h ;# 
   575  0009                     # 454 "C:\Program Files (x86)\Microchip\xc8\v2.00\pic\include\pic16f887.h"
   576                           PCLATH equ 0Ah ;# 
   577  000A                     # 461 "C:\Program Files (x86)\Microchip\xc8\v2.00\pic\include\pic16f887.h"
   578                           INTCON equ 0Bh ;# 
   579  000B                     # 539 "C:\Program Files (x86)\Microchip\xc8\v2.00\pic\include\pic16f887.h"
   580                           PIR1 equ 0Ch ;# 
   581  000C                     # 595 "C:\Program Files (x86)\Microchip\xc8\v2.00\pic\include\pic16f887.h"
   582                           PIR2 equ 0Dh ;# 
   583  000D                     # 652 "C:\Program Files (x86)\Microchip\xc8\v2.00\pic\include\pic16f887.h"
   584                           TMR1 equ 0Eh ;# 
   585  000E                     # 659 "C:\Program Files (x86)\Microchip\xc8\v2.00\pic\include\pic16f887.h"
   586                           TMR1L equ 0Eh ;# 
   587  000E                     # 666 "C:\Program Files (x86)\Microchip\xc8\v2.00\pic\include\pic16f887.h"
   588                           TMR1H equ 0Fh ;# 
   589  000F                     # 673 "C:\Program Files (x86)\Microchip\xc8\v2.00\pic\include\pic16f887.h"
   590                           T1CON equ 010h ;# 
   591  0010                     # 767 "C:\Program Files (x86)\Microchip\xc8\v2.00\pic\include\pic16f887.h"
   592                           TMR2 equ 011h ;# 
   593  0011                     # 774 "C:\Program Files (x86)\Microchip\xc8\v2.00\pic\include\pic16f887.h"
   594                           T2CON equ 012h ;# 
   595  0012                     # 845 "C:\Program Files (x86)\Microchip\xc8\v2.00\pic\include\pic16f887.h"
   596                           SSPBUF equ 013h ;# 
   597  0013                     # 852 "C:\Program Files (x86)\Microchip\xc8\v2.00\pic\include\pic16f887.h"
   598                           SSPCON equ 014h ;# 
   599  0014                     # 922 "C:\Program Files (x86)\Microchip\xc8\v2.00\pic\include\pic16f887.h"
   600                           CCPR1 equ 015h ;# 
   601  0015                     # 929 "C:\Program Files (x86)\Microchip\xc8\v2.00\pic\include\pic16f887.h"
   602                           CCPR1L equ 015h ;# 
   603  0015                     # 936 "C:\Program Files (x86)\Microchip\xc8\v2.00\pic\include\pic16f887.h"
   604                           CCPR1H equ 016h ;# 
   605  0016                     # 943 "C:\Program Files (x86)\Microchip\xc8\v2.00\pic\include\pic16f887.h"
   606                           CCP1CON equ 017h ;# 
   607  0017                     # 1040 "C:\Program Files (x86)\Microchip\xc8\v2.00\pic\include\pic16f887.h"
   608                           RCSTA equ 018h ;# 
   609  0018                     # 1135 "C:\Program Files (x86)\Microchip\xc8\v2.00\pic\include\pic16f887.h"
   610                           TXREG equ 019h ;# 
   611  0019                     # 1142 "C:\Program Files (x86)\Microchip\xc8\v2.00\pic\include\pic16f887.h"
   612                           RCREG equ 01Ah ;# 
   613  001A                     # 1149 "C:\Program Files (x86)\Microchip\xc8\v2.00\pic\include\pic16f887.h"
   614                           CCPR2 equ 01Bh ;# 
   615  001B                     # 1156 "C:\Program Files (x86)\Microchip\xc8\v2.00\pic\include\pic16f887.h"
   616                           CCPR2L equ 01Bh ;# 
   617  001B                     # 1163 "C:\Program Files (x86)\Microchip\xc8\v2.00\pic\include\pic16f887.h"
   618                           CCPR2H equ 01Ch ;# 
   619  001C                     # 1170 "C:\Program Files (x86)\Microchip\xc8\v2.00\pic\include\pic16f887.h"
   620                           CCP2CON equ 01Dh ;# 
   621  001D                     # 1240 "C:\Program Files (x86)\Microchip\xc8\v2.00\pic\include\pic16f887.h"
   622                           ADRESH equ 01Eh ;# 
   623  001E                     # 1247 "C:\Program Files (x86)\Microchip\xc8\v2.00\pic\include\pic16f887.h"
   624                           ADCON0 equ 01Fh ;# 
   625  001F                     # 1348 "C:\Program Files (x86)\Microchip\xc8\v2.00\pic\include\pic16f887.h"
   626                           OPTION_REG equ 081h ;# 
   627  0081                     # 1418 "C:\Program Files (x86)\Microchip\xc8\v2.00\pic\include\pic16f887.h"
   628                           TRISA equ 085h ;# 
   629  0085                     # 1480 "C:\Program Files (x86)\Microchip\xc8\v2.00\pic\include\pic16f887.h"
   630                           TRISB equ 086h ;# 
   631  0086                     # 1542 "C:\Program Files (x86)\Microchip\xc8\v2.00\pic\include\pic16f887.h"
   632                           TRISC equ 087h ;# 
   633  0087                     # 1604 "C:\Program Files (x86)\Microchip\xc8\v2.00\pic\include\pic16f887.h"
   634                           TRISD equ 088h ;# 
   635  0088                     # 1666 "C:\Program Files (x86)\Microchip\xc8\v2.00\pic\include\pic16f887.h"
   636                           TRISE equ 089h ;# 
   637  0089                     # 1704 "C:\Program Files (x86)\Microchip\xc8\v2.00\pic\include\pic16f887.h"
   638                           PIE1 equ 08Ch ;# 
   639  008C                     # 1760 "C:\Program Files (x86)\Microchip\xc8\v2.00\pic\include\pic16f887.h"
   640                           PIE2 equ 08Dh ;# 
   641  008D                     # 1817 "C:\Program Files (x86)\Microchip\xc8\v2.00\pic\include\pic16f887.h"
   642                           PCON equ 08Eh ;# 
   643  008E                     # 1864 "C:\Program Files (x86)\Microchip\xc8\v2.00\pic\include\pic16f887.h"
   644                           OSCCON equ 08Fh ;# 
   645  008F                     # 1929 "C:\Program Files (x86)\Microchip\xc8\v2.00\pic\include\pic16f887.h"
   646                           OSCTUNE equ 090h ;# 
   647  0090                     # 1981 "C:\Program Files (x86)\Microchip\xc8\v2.00\pic\include\pic16f887.h"
   648                           SSPCON2 equ 091h ;# 
   649  0091                     # 2043 "C:\Program Files (x86)\Microchip\xc8\v2.00\pic\include\pic16f887.h"
   650                           PR2 equ 092h ;# 
   651  0092                     # 2050 "C:\Program Files (x86)\Microchip\xc8\v2.00\pic\include\pic16f887.h"
   652                           SSPADD equ 093h ;# 
   653  0093                     # 2057 "C:\Program Files (x86)\Microchip\xc8\v2.00\pic\include\pic16f887.h"
   654                           SSPMSK equ 093h ;# 
   655  0093                     # 2062 "C:\Program Files (x86)\Microchip\xc8\v2.00\pic\include\pic16f887.h"
   656                           MSK equ 093h ;# 
   657  0093                     # 2179 "C:\Program Files (x86)\Microchip\xc8\v2.00\pic\include\pic16f887.h"
   658                           SSPSTAT equ 094h ;# 
   659  0094                     # 2348 "C:\Program Files (x86)\Microchip\xc8\v2.00\pic\include\pic16f887.h"
   660                           WPUB equ 095h ;# 
   661  0095                     # 2418 "C:\Program Files (x86)\Microchip\xc8\v2.00\pic\include\pic16f887.h"
   662                           IOCB equ 096h ;# 
   663  0096                     # 2488 "C:\Program Files (x86)\Microchip\xc8\v2.00\pic\include\pic16f887.h"
   664                           VRCON equ 097h ;# 
   665  0097                     # 2558 "C:\Program Files (x86)\Microchip\xc8\v2.00\pic\include\pic16f887.h"
   666                           TXSTA equ 098h ;# 
   667  0098                     # 2644 "C:\Program Files (x86)\Microchip\xc8\v2.00\pic\include\pic16f887.h"
   668                           SPBRG equ 099h ;# 
   669  0099                     # 2706 "C:\Program Files (x86)\Microchip\xc8\v2.00\pic\include\pic16f887.h"
   670                           SPBRGH equ 09Ah ;# 
   671  009A                     # 2776 "C:\Program Files (x86)\Microchip\xc8\v2.00\pic\include\pic16f887.h"
   672                           PWM1CON equ 09Bh ;# 
   673  009B                     # 2846 "C:\Program Files (x86)\Microchip\xc8\v2.00\pic\include\pic16f887.h"
   674                           ECCPAS equ 09Ch ;# 
   675  009C                     # 2928 "C:\Program Files (x86)\Microchip\xc8\v2.00\pic\include\pic16f887.h"
   676                           PSTRCON equ 09Dh ;# 
   677  009D                     # 2972 "C:\Program Files (x86)\Microchip\xc8\v2.00\pic\include\pic16f887.h"
   678                           ADRESL equ 09Eh ;# 
   679  009E                     # 2979 "C:\Program Files (x86)\Microchip\xc8\v2.00\pic\include\pic16f887.h"
   680                           ADCON1 equ 09Fh ;# 
   681  009F                     # 3013 "C:\Program Files (x86)\Microchip\xc8\v2.00\pic\include\pic16f887.h"
   682                           WDTCON equ 0105h ;# 
   683  0105                     # 3066 "C:\Program Files (x86)\Microchip\xc8\v2.00\pic\include\pic16f887.h"
   684                           CM1CON0 equ 0107h ;# 
   685  0107                     # 3131 "C:\Program Files (x86)\Microchip\xc8\v2.00\pic\include\pic16f887.h"
   686                           CM2CON0 equ 0108h ;# 
   687  0108                     # 3196 "C:\Program Files (x86)\Microchip\xc8\v2.00\pic\include\pic16f887.h"
   688                           CM2CON1 equ 0109h ;# 
   689  0109                     # 3247 "C:\Program Files (x86)\Microchip\xc8\v2.00\pic\include\pic16f887.h"
   690                           EEDATA equ 010Ch ;# 
   691  010C                     # 3252 "C:\Program Files (x86)\Microchip\xc8\v2.00\pic\include\pic16f887.h"
   692                           EEDAT equ 010Ch ;# 
   693  010C                     # 3259 "C:\Program Files (x86)\Microchip\xc8\v2.00\pic\include\pic16f887.h"
   694                           EEADR equ 010Dh ;# 
   695  010D                     # 3266 "C:\Program Files (x86)\Microchip\xc8\v2.00\pic\include\pic16f887.h"
   696                           EEDATH equ 010Eh ;# 
   697  010E                     # 3273 "C:\Program Files (x86)\Microchip\xc8\v2.00\pic\include\pic16f887.h"
   698                           EEADRH equ 010Fh ;# 
   699  010F                     # 3280 "C:\Program Files (x86)\Microchip\xc8\v2.00\pic\include\pic16f887.h"
   700                           SRCON equ 0185h ;# 
   701  0185                     # 3337 "C:\Program Files (x86)\Microchip\xc8\v2.00\pic\include\pic16f887.h"
   702                           BAUDCTL equ 0187h ;# 
   703  0187                     # 3389 "C:\Program Files (x86)\Microchip\xc8\v2.00\pic\include\pic16f887.h"
   704                           ANSEL equ 0188h ;# 
   705  0188                     # 3451 "C:\Program Files (x86)\Microchip\xc8\v2.00\pic\include\pic16f887.h"
   706                           ANSELH equ 0189h ;# 
   707  0189                     # 3501 "C:\Program Files (x86)\Microchip\xc8\v2.00\pic\include\pic16f887.h"
   708                           EECON1 equ 018Ch ;# 
   709  018C                     # 3546 "C:\Program Files (x86)\Microchip\xc8\v2.00\pic\include\pic16f887.h"
   710                           EECON2 equ 018Dh ;# 
   711  018D                     # 54 "C:\Program Files (x86)\Microchip\xc8\v2.00\pic\include\pic16f887.h"
   712                           INDF equ 00h ;# 
   713  0000                     # 61 "C:\Program Files (x86)\Microchip\xc8\v2.00\pic\include\pic16f887.h"
   714                           TMR0 equ 01h ;# 
   715  0001                     # 68 "C:\Program Files (x86)\Microchip\xc8\v2.00\pic\include\pic16f887.h"
   716                           PCL equ 02h ;# 
   717  0002                     # 75 "C:\Program Files (x86)\Microchip\xc8\v2.00\pic\include\pic16f887.h"
   718                           STATUS equ 03h ;# 
   719  0003                     # 161 "C:\Program Files (x86)\Microchip\xc8\v2.00\pic\include\pic16f887.h"
   720                           FSR equ 04h ;# 
   721  0004                     # 168 "C:\Program Files (x86)\Microchip\xc8\v2.00\pic\include\pic16f887.h"
   722                           PORTA equ 05h ;# 
   723  0005                     # 230 "C:\Program Files (x86)\Microchip\xc8\v2.00\pic\include\pic16f887.h"
   724                           PORTB equ 06h ;# 
   725  0006                     # 292 "C:\Program Files (x86)\Microchip\xc8\v2.00\pic\include\pic16f887.h"
   726                           PORTC equ 07h ;# 
   727  0007                     # 354 "C:\Program Files (x86)\Microchip\xc8\v2.00\pic\include\pic16f887.h"
   728                           PORTD equ 08h ;# 
   729  0008                     # 416 "C:\Program Files (x86)\Microchip\xc8\v2.00\pic\include\pic16f887.h"
   730                           PORTE equ 09h ;# 
   731  0009                     # 454 "C:\Program Files (x86)\Microchip\xc8\v2.00\pic\include\pic16f887.h"
   732                           PCLATH equ 0Ah ;# 
   733  000A                     # 461 "C:\Program Files (x86)\Microchip\xc8\v2.00\pic\include\pic16f887.h"
   734                           INTCON equ 0Bh ;# 
   735  000B                     # 539 "C:\Program Files (x86)\Microchip\xc8\v2.00\pic\include\pic16f887.h"
   736                           PIR1 equ 0Ch ;# 
   737  000C                     # 595 "C:\Program Files (x86)\Microchip\xc8\v2.00\pic\include\pic16f887.h"
   738                           PIR2 equ 0Dh ;# 
   739  000D                     # 652 "C:\Program Files (x86)\Microchip\xc8\v2.00\pic\include\pic16f887.h"
   740                           TMR1 equ 0Eh ;# 
   741  000E                     # 659 "C:\Program Files (x86)\Microchip\xc8\v2.00\pic\include\pic16f887.h"
   742                           TMR1L equ 0Eh ;# 
   743  000E                     # 666 "C:\Program Files (x86)\Microchip\xc8\v2.00\pic\include\pic16f887.h"
   744                           TMR1H equ 0Fh ;# 
   745  000F                     # 673 "C:\Program Files (x86)\Microchip\xc8\v2.00\pic\include\pic16f887.h"
   746                           T1CON equ 010h ;# 
   747  0010                     # 767 "C:\Program Files (x86)\Microchip\xc8\v2.00\pic\include\pic16f887.h"
   748                           TMR2 equ 011h ;# 
   749  0011                     # 774 "C:\Program Files (x86)\Microchip\xc8\v2.00\pic\include\pic16f887.h"
   750                           T2CON equ 012h ;# 
   751  0012                     # 845 "C:\Program Files (x86)\Microchip\xc8\v2.00\pic\include\pic16f887.h"
   752                           SSPBUF equ 013h ;# 
   753  0013                     # 852 "C:\Program Files (x86)\Microchip\xc8\v2.00\pic\include\pic16f887.h"
   754                           SSPCON equ 014h ;# 
   755  0014                     # 922 "C:\Program Files (x86)\Microchip\xc8\v2.00\pic\include\pic16f887.h"
   756                           CCPR1 equ 015h ;# 
   757  0015                     # 929 "C:\Program Files (x86)\Microchip\xc8\v2.00\pic\include\pic16f887.h"
   758                           CCPR1L equ 015h ;# 
   759  0015                     # 936 "C:\Program Files (x86)\Microchip\xc8\v2.00\pic\include\pic16f887.h"
   760                           CCPR1H equ 016h ;# 
   761  0016                     # 943 "C:\Program Files (x86)\Microchip\xc8\v2.00\pic\include\pic16f887.h"
   762                           CCP1CON equ 017h ;# 
   763  0017                     # 1040 "C:\Program Files (x86)\Microchip\xc8\v2.00\pic\include\pic16f887.h"
   764                           RCSTA equ 018h ;# 
   765  0018                     # 1135 "C:\Program Files (x86)\Microchip\xc8\v2.00\pic\include\pic16f887.h"
   766                           TXREG equ 019h ;# 
   767  0019                     # 1142 "C:\Program Files (x86)\Microchip\xc8\v2.00\pic\include\pic16f887.h"
   768                           RCREG equ 01Ah ;# 
   769  001A                     # 1149 "C:\Program Files (x86)\Microchip\xc8\v2.00\pic\include\pic16f887.h"
   770                           CCPR2 equ 01Bh ;# 
   771  001B                     # 1156 "C:\Program Files (x86)\Microchip\xc8\v2.00\pic\include\pic16f887.h"
   772                           CCPR2L equ 01Bh ;# 
   773  001B                     # 1163 "C:\Program Files (x86)\Microchip\xc8\v2.00\pic\include\pic16f887.h"
   774                           CCPR2H equ 01Ch ;# 
   775  001C                     # 1170 "C:\Program Files (x86)\Microchip\xc8\v2.00\pic\include\pic16f887.h"
   776                           CCP2CON equ 01Dh ;# 
   777  001D                     # 1240 "C:\Program Files (x86)\Microchip\xc8\v2.00\pic\include\pic16f887.h"
   778                           ADRESH equ 01Eh ;# 
   779  001E                     # 1247 "C:\Program Files (x86)\Microchip\xc8\v2.00\pic\include\pic16f887.h"
   780                           ADCON0 equ 01Fh ;# 
   781  001F                     # 1348 "C:\Program Files (x86)\Microchip\xc8\v2.00\pic\include\pic16f887.h"
   782                           OPTION_REG equ 081h ;# 
   783  0081                     # 1418 "C:\Program Files (x86)\Microchip\xc8\v2.00\pic\include\pic16f887.h"
   784                           TRISA equ 085h ;# 
   785  0085                     # 1480 "C:\Program Files (x86)\Microchip\xc8\v2.00\pic\include\pic16f887.h"
   786                           TRISB equ 086h ;# 
   787  0086                     # 1542 "C:\Program Files (x86)\Microchip\xc8\v2.00\pic\include\pic16f887.h"
   788                           TRISC equ 087h ;# 
   789  0087                     # 1604 "C:\Program Files (x86)\Microchip\xc8\v2.00\pic\include\pic16f887.h"
   790                           TRISD equ 088h ;# 
   791  0088                     # 1666 "C:\Program Files (x86)\Microchip\xc8\v2.00\pic\include\pic16f887.h"
   792                           TRISE equ 089h ;# 
   793  0089                     # 1704 "C:\Program Files (x86)\Microchip\xc8\v2.00\pic\include\pic16f887.h"
   794                           PIE1 equ 08Ch ;# 
   795  008C                     # 1760 "C:\Program Files (x86)\Microchip\xc8\v2.00\pic\include\pic16f887.h"
   796                           PIE2 equ 08Dh ;# 
   797  008D                     # 1817 "C:\Program Files (x86)\Microchip\xc8\v2.00\pic\include\pic16f887.h"
   798                           PCON equ 08Eh ;# 
   799  008E                     # 1864 "C:\Program Files (x86)\Microchip\xc8\v2.00\pic\include\pic16f887.h"
   800                           OSCCON equ 08Fh ;# 
   801  008F                     # 1929 "C:\Program Files (x86)\Microchip\xc8\v2.00\pic\include\pic16f887.h"
   802                           OSCTUNE equ 090h ;# 
   803  0090                     # 1981 "C:\Program Files (x86)\Microchip\xc8\v2.00\pic\include\pic16f887.h"
   804                           SSPCON2 equ 091h ;# 
   805  0091                     # 2043 "C:\Program Files (x86)\Microchip\xc8\v2.00\pic\include\pic16f887.h"
   806                           PR2 equ 092h ;# 
   807  0092                     # 2050 "C:\Program Files (x86)\Microchip\xc8\v2.00\pic\include\pic16f887.h"
   808                           SSPADD equ 093h ;# 
   809  0093                     # 2057 "C:\Program Files (x86)\Microchip\xc8\v2.00\pic\include\pic16f887.h"
   810                           SSPMSK equ 093h ;# 
   811  0093                     # 2062 "C:\Program Files (x86)\Microchip\xc8\v2.00\pic\include\pic16f887.h"
   812                           MSK equ 093h ;# 
   813  0093                     # 2179 "C:\Program Files (x86)\Microchip\xc8\v2.00\pic\include\pic16f887.h"
   814                           SSPSTAT equ 094h ;# 
   815  0094                     # 2348 "C:\Program Files (x86)\Microchip\xc8\v2.00\pic\include\pic16f887.h"
   816                           WPUB equ 095h ;# 
   817  0095                     # 2418 "C:\Program Files (x86)\Microchip\xc8\v2.00\pic\include\pic16f887.h"
   818                           IOCB equ 096h ;# 
   819  0096                     # 2488 "C:\Program Files (x86)\Microchip\xc8\v2.00\pic\include\pic16f887.h"
   820                           VRCON equ 097h ;# 
   821  0097                     # 2558 "C:\Program Files (x86)\Microchip\xc8\v2.00\pic\include\pic16f887.h"
   822                           TXSTA equ 098h ;# 
   823  0098                     # 2644 "C:\Program Files (x86)\Microchip\xc8\v2.00\pic\include\pic16f887.h"
   824                           SPBRG equ 099h ;# 
   825  0099                     # 2706 "C:\Program Files (x86)\Microchip\xc8\v2.00\pic\include\pic16f887.h"
   826                           SPBRGH equ 09Ah ;# 
   827  009A                     # 2776 "C:\Program Files (x86)\Microchip\xc8\v2.00\pic\include\pic16f887.h"
   828                           PWM1CON equ 09Bh ;# 
   829  009B                     # 2846 "C:\Program Files (x86)\Microchip\xc8\v2.00\pic\include\pic16f887.h"
   830                           ECCPAS equ 09Ch ;# 
   831  009C                     # 2928 "C:\Program Files (x86)\Microchip\xc8\v2.00\pic\include\pic16f887.h"
   832                           PSTRCON equ 09Dh ;# 
   833  009D                     # 2972 "C:\Program Files (x86)\Microchip\xc8\v2.00\pic\include\pic16f887.h"
   834                           ADRESL equ 09Eh ;# 
   835  009E                     # 2979 "C:\Program Files (x86)\Microchip\xc8\v2.00\pic\include\pic16f887.h"
   836                           ADCON1 equ 09Fh ;# 
   837  009F                     # 3013 "C:\Program Files (x86)\Microchip\xc8\v2.00\pic\include\pic16f887.h"
   838                           WDTCON equ 0105h ;# 
   839  0105                     # 3066 "C:\Program Files (x86)\Microchip\xc8\v2.00\pic\include\pic16f887.h"
   840                           CM1CON0 equ 0107h ;# 
   841  0107                     # 3131 "C:\Program Files (x86)\Microchip\xc8\v2.00\pic\include\pic16f887.h"
   842                           CM2CON0 equ 0108h ;# 
   843  0108                     # 3196 "C:\Program Files (x86)\Microchip\xc8\v2.00\pic\include\pic16f887.h"
   844                           CM2CON1 equ 0109h ;# 
   845  0109                     # 3247 "C:\Program Files (x86)\Microchip\xc8\v2.00\pic\include\pic16f887.h"
   846                           EEDATA equ 010Ch ;# 
   847  010C                     # 3252 "C:\Program Files (x86)\Microchip\xc8\v2.00\pic\include\pic16f887.h"
   848                           EEDAT equ 010Ch ;# 
   849  010C                     # 3259 "C:\Program Files (x86)\Microchip\xc8\v2.00\pic\include\pic16f887.h"
   850                           EEADR equ 010Dh ;# 
   851  010D                     # 3266 "C:\Program Files (x86)\Microchip\xc8\v2.00\pic\include\pic16f887.h"
   852                           EEDATH equ 010Eh ;# 
   853  010E                     # 3273 "C:\Program Files (x86)\Microchip\xc8\v2.00\pic\include\pic16f887.h"
   854                           EEADRH equ 010Fh ;# 
   855  010F                     # 3280 "C:\Program Files (x86)\Microchip\xc8\v2.00\pic\include\pic16f887.h"
   856                           SRCON equ 0185h ;# 
   857  0185                     # 3337 "C:\Program Files (x86)\Microchip\xc8\v2.00\pic\include\pic16f887.h"
   858                           BAUDCTL equ 0187h ;# 
   859  0187                     # 3389 "C:\Program Files (x86)\Microchip\xc8\v2.00\pic\include\pic16f887.h"
   860                           ANSEL equ 0188h ;# 
   861  0188                     # 3451 "C:\Program Files (x86)\Microchip\xc8\v2.00\pic\include\pic16f887.h"
   862                           ANSELH equ 0189h ;# 
   863  0189                     # 3501 "C:\Program Files (x86)\Microchip\xc8\v2.00\pic\include\pic16f887.h"
   864                           EECON1 equ 018Ch ;# 
   865  018C                     # 3546 "C:\Program Files (x86)\Microchip\xc8\v2.00\pic\include\pic16f887.h"
   866                           EECON2 equ 018Dh ;# 
   867  018D                     	FNCALL	_main,_botao_S0
   868                           	FNCALL	_main,_botao_S1
   869                           	FNCALL	_main,_contatores_init
   870                           	FNCALL	_main,_delay
   871                           	FNCALL	_main,_disp7seg_init
   872                           	FNCALL	_main,_display7seg
   873                           	FNCALL	_main,_k1
   874                           	FNCALL	_main,_k2
   875                           	FNCALL	_main,_k3
   876                           	FNROOT	_main
   877                           	global	_vetor
   878                           psect	idataBANK0,class=CODE,space=0,delta=2,noexec
   879                           global __pidataBANK0
   880                           __pidataBANK0:
   881  06A5                     	file	"disp7seg.c"
   882                           	line	11
   883                           
   884                           ;initializer for _vetor
   885                           	retlw	03Fh
   886  06A5  343F               	retlw	06h
   887  06A6  3406               	retlw	05Bh
   888  06A7  345B               	retlw	04Fh
   889  06A8  344F               	retlw	066h
   890  06A9  3466               	retlw	06Dh
   891  06AA  346D               	retlw	07Dh
   892  06AB  347D               	retlw	07h
   893  06AC  3407               	retlw	07Fh
   894  06AD  347F               	retlw	06Fh
   895  06AE  346F               	global	_PORTB
   896                           _PORTB	set	0x6
   897  0006                     	global	_PORTDbits
   898                           _PORTDbits	set	0x8
   899  0008                     	global	_PORTD
   900                           _PORTD	set	0x8
   901  0008                     	global	_TRISB
   902                           _TRISB	set	0x86
   903  0086                     	global	_TRISDbits
   904                           _TRISDbits	set	0x88
   905  0088                     	global	_ANSELH
   906                           _ANSELH	set	0x189
   907  0189                     ; #config settings
   908                           global __CFG_FOSC$INTRC_NOCLKOUT
   909                           __CFG_FOSC$INTRC_NOCLKOUT equ 0x0
   910  0000                     global __CFG_WDTE$OFF
   911                           __CFG_WDTE$OFF equ 0x0
   912  0000                     global __CFG_PWRTE$OFF
   913                           __CFG_PWRTE$OFF equ 0x0
   914  0000                     global __CFG_MCLRE$OFF
   915                           __CFG_MCLRE$OFF equ 0x0
   916  0000                     global __CFG_CP$OFF
   917                           __CFG_CP$OFF equ 0x0
   918  0000                     global __CFG_CPD$OFF
   919                           __CFG_CPD$OFF equ 0x0
   920  0000                     global __CFG_BOREN$OFF
   921                           __CFG_BOREN$OFF equ 0x0
   922  0000                     global __CFG_IESO$OFF
   923                           __CFG_IESO$OFF equ 0x0
   924  0000                     global __CFG_FCMEN$OFF
   925                           __CFG_FCMEN$OFF equ 0x0
   926  0000                     global __CFG_LVP$OFF
   927                           __CFG_LVP$OFF equ 0x0
   928  0000                     global __CFG_BOR4V$BOR40V
   929                           __CFG_BOR4V$BOR40V equ 0x0
   930  0000                     global __CFG_WRT$OFF
   931                           __CFG_WRT$OFF equ 0x0
   932  0000                     	file	"C:\Users\21192694\AppData\Local\Temp\s5sg."
   933                           	line	#
   934                           psect cinit,class=CODE,delta=2
   935                           global start_initialization
   936                           start_initialization:
   937  07EE                     
   938                           global __initialization
   939                           __initialization:
   940  07EE                     psect	dataBANK0,class=BANK0,space=1,noexec
   941                           global __pdataBANK0
   942                           __pdataBANK0:
   943  0020                     	file	"disp7seg.c"
   944                           	line	11
   945                           _vetor:
   946  0020                            ds      10
   947  0020                     
   948                           	file	"C:\Users\21192694\AppData\Local\Temp\s5sg."
   949                           	line	#
   950                           global btemp
   951                           psect inittext,class=CODE,delta=2
   952                           global init_fetch0,btemp
   953                           ;	Called with low address in FSR and high address in W
   954                           init_fetch0:
   955  06BA                     	movf btemp,w
   956  06BA  087E               	movwf pclath
   957  06BB  008A               	movf btemp+1,w
   958  06BC  087F               	movwf pc
   959  06BD  0082               global init_ram0
   960                           ;Called with:
   961                           ;	high address of idata address in btemp 
   962                           ;	low address of idata address in btemp+1 
   963                           ;	low address of data in FSR
   964                           ;	high address + 1 of data in btemp-1
   965                           init_ram0:
   966  06BE                     	fcall init_fetch0
   967  06BE  120A  118A  26BA  120A  118A  	movwf indf,f
   968  06C3  0080               	incf fsr,f
   969  06C4  0A84               	movf fsr,w
   970  06C5  0804               	xorwf btemp-1,w
   971  06C6  067D               	btfsc status,2
   972  06C7  1903               	retlw 0
   973  06C8  3400               	incf btemp+1,f
   974  06C9  0AFF               	btfsc status,2
   975  06CA  1903               	incf btemp,f
   976  06CB  0AFE               	goto init_ram0
   977  06CC  2EBE               ; Initialize objects allocated to BANK0
   978                           psect cinit,class=CODE,delta=2,merge=1
   979                           global init_ram0, __pidataBANK0
   980                           	bcf	status, 7	;select IRP bank0
   981  07EE  1383               	movlw low(__pdataBANK0+10)
   982  07EF  302A               	movwf btemp-1,f
   983  07F0  00FD               	movlw high(__pidataBANK0)
   984  07F1  3006               	movwf btemp,f
   985  07F2  00FE               	movlw low(__pidataBANK0)
   986  07F3  30A5               	movwf btemp+1,f
   987  07F4  00FF               	movlw low(__pdataBANK0)
   988  07F5  3020               	movwf fsr,f
   989  07F6  0084               	fcall init_ram0
   990  07F7  120A  118A  26BE  120A  118A  psect cinit,class=CODE,delta=2,merge=1
   991                           global end_of_initialization,__end_of__initialization
   992                           
   993                           ;End of C runtime variable initialization code
   994                           
   995                           end_of_initialization:
   996  07FC                     __end_of__initialization:
   997  07FC                     clrf status
   998  07FC  0183               ljmp _main	;jump to C main() function
   999  07FD  120A  118A  2EE4   psect	cstackCOMMON,class=COMMON,space=1,noexec
  1000                           global __pcstackCOMMON
  1001                           __pcstackCOMMON:
  1002  0070                     ?_contatores_init:	; 1 bytes @ 0x0
  1003  0070                     ??_contatores_init:	; 1 bytes @ 0x0
  1004  0070                     ?_disp7seg_init:	; 1 bytes @ 0x0
  1005  0070                     ??_disp7seg_init:	; 1 bytes @ 0x0
  1006  0070                     ?_botao_S1:	; 1 bytes @ 0x0
  1007  0070                     ??_botao_S1:	; 1 bytes @ 0x0
  1008  0070                     ?_k1:	; 1 bytes @ 0x0
  1009  0070                     ?_k2:	; 1 bytes @ 0x0
  1010  0070                     ?_k3:	; 1 bytes @ 0x0
  1011  0070                     ?_botao_S0:	; 1 bytes @ 0x0
  1012  0070                     ??_botao_S0:	; 1 bytes @ 0x0
  1013  0070                     ?_display7seg:	; 1 bytes @ 0x0
  1014  0070                     ?_delay:	; 1 bytes @ 0x0
  1015  0070                     ?_main:	; 1 bytes @ 0x0
  1016  0070                     	global	delay@t
  1017                           delay@t:	; 2 bytes @ 0x0
  1018  0070                     	global	k1@x
  1019                           k1@x:	; 2 bytes @ 0x0
  1020  0070                     	global	k2@x
  1021                           k2@x:	; 2 bytes @ 0x0
  1022  0070                     	global	k3@x
  1023                           k3@x:	; 2 bytes @ 0x0
  1024  0070                     	global	display7seg@c
  1025                           display7seg@c:	; 2 bytes @ 0x0
  1026  0070                     	ds	2
  1027  0070                     ??_k1:	; 1 bytes @ 0x2
  1028  0072                     ??_k2:	; 1 bytes @ 0x2
  1029  0072                     ??_k3:	; 1 bytes @ 0x2
  1030  0072                     ??_display7seg:	; 1 bytes @ 0x2
  1031  0072                     ??_delay:	; 1 bytes @ 0x2
  1032  0072                     	ds	1
  1033  0072                     ??_main:	; 1 bytes @ 0x3
  1034  0073                     	ds	2
  1035  0073                     	global	main@t
  1036                           main@t:	; 2 bytes @ 0x5
  1037  0075                     	ds	2
  1038  0075                     	global	main@cont
  1039                           main@cont:	; 1 bytes @ 0x7
  1040  0077                     	ds	1
  1041  0077                     	global	main@estado
  1042                           main@estado:	; 2 bytes @ 0x8
  1043  0078                     	ds	2
  1044  0078                     ;!
  1045                           ;!Data Sizes:
  1046                           ;!    Strings     0
  1047                           ;!    Constant    0
  1048                           ;!    Data        10
  1049                           ;!    BSS         0
  1050                           ;!    Persistent  0
  1051                           ;!    Stack       0
  1052                           ;!
  1053                           ;!Auto Spaces:
  1054                           ;!    Space          Size  Autos    Used
  1055                           ;!    COMMON           14     10      10
  1056                           ;!    BANK0            80      0      10
  1057                           ;!    BANK1            80      0       0
  1058                           ;!    BANK3            96      0       0
  1059                           ;!    BANK2            96      0       0
  1060                           
  1061                           ;!
  1062                           ;!Pointer List with Targets:
  1063                           ;!
  1064                           ;!    None.
  1065                           
  1066                           
  1067                           ;!
  1068                           ;!Critical Paths under _main in COMMON
  1069                           ;!
  1070                           ;!    _main->_delay
  1071                           ;!
  1072                           ;!Critical Paths under _main in BANK0
  1073                           ;!
  1074                           ;!    None.
  1075                           ;!
  1076                           ;!Critical Paths under _main in BANK1
  1077                           ;!
  1078                           ;!    None.
  1079                           ;!
  1080                           ;!Critical Paths under _main in BANK3
  1081                           ;!
  1082                           ;!    None.
  1083                           ;!
  1084                           ;!Critical Paths under _main in BANK2
  1085                           ;!
  1086                           ;!    None.
  1087                           
  1088 ;;
  1089 ;;Main: autosize = 0, tempsize = 2, incstack = 0, save=0
  1090 ;;
  1091                           
  1092                           ;!
  1093                           ;!Call Graph Tables:
  1094                           ;!
  1095                           ;! ---------------------------------------------------------------------------------
  1096                           ;! (Depth) Function   	        Calls       Base Space   Used Autos Params    Refs
  1097                           ;! ---------------------------------------------------------------------------------
  1098                           ;! (0) _main                                                 7     7      0    1274
  1099                           ;!                                              3 COMMON     7     7      0
  1100                           ;!                           _botao_S0
  1101                           ;!                           _botao_S1
  1102                           ;!                    _contatores_init
  1103                           ;!                              _delay
  1104                           ;!                      _disp7seg_init
  1105                           ;!                        _display7seg
  1106                           ;!                                 _k1
  1107                           ;!                                 _k2
  1108                           ;!                                 _k3
  1109                           ;! ---------------------------------------------------------------------------------
  1110                           ;! (1) _k3                                                   2     0      2     326
  1111                           ;!                                              0 COMMON     2     0      2
  1112                           ;! ---------------------------------------------------------------------------------
  1113                           ;! (1) _k2                                                   2     0      2     326
  1114                           ;!                                              0 COMMON     2     0      2
  1115                           ;! ---------------------------------------------------------------------------------
  1116                           ;! (1) _k1                                                   2     0      2     326
  1117                           ;!                                              0 COMMON     2     0      2
  1118                           ;! ---------------------------------------------------------------------------------
  1119                           ;! (1) _display7seg                                          2     0      2      98
  1120                           ;!                                              0 COMMON     2     0      2
  1121                           ;! ---------------------------------------------------------------------------------
  1122                           ;! (1) _disp7seg_init                                        0     0      0       0
  1123                           ;! ---------------------------------------------------------------------------------
  1124                           ;! (1) _delay                                                3     1      2      99
  1125                           ;!                                              0 COMMON     3     1      2
  1126                           ;! ---------------------------------------------------------------------------------
  1127                           ;! (1) _contatores_init                                      0     0      0       0
  1128                           ;! ---------------------------------------------------------------------------------
  1129                           ;! (1) _botao_S1                                             0     0      0       0
  1130                           ;! ---------------------------------------------------------------------------------
  1131                           ;! (1) _botao_S0                                             0     0      0       0
  1132                           ;! ---------------------------------------------------------------------------------
  1133                           ;! Estimated maximum stack depth 1
  1134                           ;! ---------------------------------------------------------------------------------
  1135                           ;!
  1136                           ;! Call Graph Graphs:
  1137                           ;!
  1138                           ;! _main (ROOT)
  1139                           ;!   _botao_S0
  1140                           ;!   _botao_S1
  1141                           ;!   _contatores_init
  1142                           ;!   _delay
  1143                           ;!   _disp7seg_init
  1144                           ;!   _display7seg
  1145                           ;!   _k1
  1146                           ;!   _k2
  1147                           ;!   _k3
  1148                           ;!
  1149                           
  1150                           ;! Address spaces:
  1151                           
  1152                           ;!Name               Size   Autos  Total    Cost      Usage
  1153                           ;!BANK3               60      0       0       9        0.0%
  1154                           ;!BITBANK3            60      0       0       8        0.0%
  1155                           ;!SFR3                 0      0       0       4        0.0%
  1156                           ;!BITSFR3              0      0       0       4        0.0%
  1157                           ;!BANK2               60      0       0      11        0.0%
  1158                           ;!BITBANK2            60      0       0      10        0.0%
  1159                           ;!SFR2                 0      0       0       5        0.0%
  1160                           ;!BITSFR2              0      0       0       5        0.0%
  1161                           ;!BANK1               50      0       0       7        0.0%
  1162                           ;!BITBANK1            50      0       0       6        0.0%
  1163                           ;!SFR1                 0      0       0       2        0.0%
  1164                           ;!BITSFR1              0      0       0       2        0.0%
  1165                           ;!BANK0               50      0       A       5       12.5%
  1166                           ;!BITBANK0            50      0       0       4        0.0%
  1167                           ;!SFR0                 0      0       0       1        0.0%
  1168                           ;!BITSFR0              0      0       0       1        0.0%
  1169                           ;!COMMON               E      A       A       1       71.4%
  1170                           ;!BITCOMMON            E      0       0       0        0.0%
  1171                           ;!CODE                 0      0       0       0        0.0%
  1172                           ;!DATA                 0      0      14      12        0.0%
  1173                           ;!ABS                  0      0      14       3        0.0%
  1174                           ;!NULL                 0      0       0       0        0.0%
  1175                           ;!STACK                0      0       0       2        0.0%
  1176                           ;!EEDATA             100      0       0       0        0.0%
  1177                           
  1178                           	global	_main
  1179                           
  1180 ;; *************** function _main *****************
  1181 ;; Defined at:
  1182 ;;		line 15 in file "main.c"
  1183 ;; Parameters:    Size  Location     Type
  1184 ;;		None
  1185 ;; Auto vars:     Size  Location     Type
  1186 ;;  estado          2    8[COMMON] int 
  1187 ;;  t               2    5[COMMON] int 
  1188 ;;  cont            1    7[COMMON] unsigned char 
  1189 ;; Return value:  Size  Location     Type
  1190 ;;                  1    wreg      void 
  1191 ;; Registers used:
  1192 ;;		wreg, fsr0l, fsr0h, status,2, status,0, btemp+1, pclath, cstack
  1193 ;; Tracked objects:
  1194 ;;		On entry : B00/0
  1195 ;;		On exit  : 0/0
  1196 ;;		Unchanged: 0/0
  1197 ;; Data sizes:     COMMON   BANK0   BANK1   BANK3   BANK2
  1198 ;;      Params:         0       0       0       0       0
  1199 ;;      Locals:         5       0       0       0       0
  1200 ;;      Temps:          2       0       0       0       0
  1201 ;;      Totals:         7       0       0       0       0
  1202 ;;Total ram usage:        7 bytes
  1203 ;; Hardware stack levels required when called:    1
  1204 ;; This function calls:
  1205 ;;		_botao_S0
  1206 ;;		_botao_S1
  1207 ;;		_contatores_init
  1208 ;;		_delay
  1209 ;;		_disp7seg_init
  1210 ;;		_display7seg
  1211 ;;		_k1
  1212 ;;		_k2
  1213 ;;		_k3
  1214 ;; This function is called by:
  1215 ;;		Startup code after reset
  1216 ;; This function uses a non-reentrant model
  1217 ;;
  1218                           psect	maintext,global,class=CODE,delta=2,split=1,group=0
  1219                           	file	"main.c"
  1220                           	line	15
  1221                           global __pmaintext
  1222                           __pmaintext:	;psect for function _main
  1223  06E4                     psect	maintext
  1224                           	file	"main.c"
  1225                           	line	15
  1226                           	global	__size_of_main
  1227                           	__size_of_main	equ	__end_of_main-_main
  1228  010A                     	
  1229                           _main:	
  1230  06E4                     ;incstack = 0
  1231                           	opt	stack 7
  1232                           ; Regs used in _main: [wreg-fsr0h+status,2+status,0+btemp+1+pclath+cstack]
  1233                           	line	17
  1234                           	
  1235                           l772:	
  1236  06E4                     ;main.c: 17:     contatores_init();
  1237                           	fcall	_contatores_init
  1238  06E4  120A  118A  26AF  120A  118A  	line	18
  1239                           ;main.c: 18:     disp7seg_init();
  1240                           	fcall	_disp7seg_init
  1241  06E9  120A  118A  269B  120A  118A  	line	19
  1242                           	
  1243                           l774:	
  1244  06EE                     ;main.c: 19:     int estado = 0;
  1245                           	clrf	(main@estado)
  1246  06EE  01F8               	clrf	(main@estado+1)
  1247  06EF  01F9               	line	20
  1248                           	
  1249                           l776:	
  1250  06F0                     ;main.c: 20:     char cont = 0;
  1251                           	clrf	(main@cont)
  1252  06F0  01F7               	goto	l818
  1253  06F1  2FD0               	line	23
  1254                           ;main.c: 21:     int t;;main.c: 23:     while ( 1 )
  1255                           	
  1256                           l31:	
  1257  06F2                     	line	25
  1258                           ;main.c: 24:     {;main.c: 25:         switch ( estado )
  1259                           	goto	l818
  1260  06F2  2FD0               	line	27
  1261                           ;main.c: 26:         {;main.c: 27:             case 0:
  1262                           	
  1263                           l33:	
  1264  06F3                     	line	28
  1265                           	
  1266                           l778:	
  1267  06F3                     ;main.c: 28:                     if ( botao_S1() == 1 )
  1268                           	fcall	_botao_S1
  1269  06F3  120A  118A  2674  120A  118A  	xorlw	01h
  1270  06F8  3A01               	skipz
  1271  06F9  1D03               	goto	u81
  1272  06FA  2EFC               	goto	u80
  1273  06FB  2EFD               u81:
  1274  06FC                     	goto	l818
  1275  06FC  2FD0               u80:
  1276  06FD                     	line	29
  1277                           	
  1278                           l780:	
  1279  06FD                     ;main.c: 29:                         estado = 1;
  1280                           	movlw	01h
  1281  06FD  3001               	movwf	(main@estado)
  1282  06FE  00F8               	movlw	0
  1283  06FF  3000               	movwf	((main@estado))+1
  1284  0700  00F9               	goto	l818
  1285  0701  2FD0               	
  1286                           l34:	
  1287  0702                     	line	30
  1288                           ;main.c: 30:                     break;
  1289                           	goto	l818
  1290  0702  2FD0               	line	32
  1291                           ;main.c: 32:             case 1:
  1292                           	
  1293                           l36:	
  1294  0703                     	line	33
  1295                           	
  1296                           l782:	
  1297  0703                     ;main.c: 33:                     k1 (1);
  1298                           	movlw	01h
  1299  0703  3001               	movwf	(k1@x)
  1300  0704  00F0               	movlw	0
  1301  0705  3000               	movwf	((k1@x))+1
  1302  0706  00F1               	fcall	_k1
  1303  0707  120A  118A  267A  120A  118A  	line	34
  1304                           ;main.c: 34:                     k2 (1);
  1305                           	movlw	01h
  1306  070C  3001               	movwf	(k2@x)
  1307  070D  00F0               	movlw	0
  1308  070E  3000               	movwf	((k2@x))+1
  1309  070F  00F1               	fcall	_k2
  1310  0710  120A  118A  2682  120A  118A  	line	35
  1311                           ;main.c: 35:                     k3 (0);
  1312                           	movlw	0
  1313  0715  3000               	movwf	(k3@x)
  1314  0716  00F0               	movwf	(k3@x+1)
  1315  0717  00F1               	fcall	_k3
  1316  0718  120A  118A  268A  120A  118A  	line	36
  1317                           	
  1318                           l784:	
  1319  071D                     ;main.c: 36:                     t = 3000;
  1320                           	movlw	0B8h
  1321  071D  30B8               	movwf	(main@t)
  1322  071E  00F5               	movlw	0Bh
  1323  071F  300B               	movwf	((main@t))+1
  1324  0720  00F6               	line	37
  1325                           	
  1326                           l786:	
  1327  0721                     ;main.c: 37:                     estado = 2;
  1328                           	movlw	02h
  1329  0721  3002               	movwf	(main@estado)
  1330  0722  00F8               	movlw	0
  1331  0723  3000               	movwf	((main@estado))+1
  1332  0724  00F9               	line	38
  1333                           ;main.c: 38:                     break;
  1334                           	goto	l818
  1335  0725  2FD0               	line	40
  1336                           ;main.c: 40:             case 2:
  1337                           	
  1338                           l37:	
  1339  0726                     	line	41
  1340                           	
  1341                           l788:	
  1342  0726                     ;main.c: 41:                     if (botao_S0() == 1)
  1343                           	fcall	_botao_S0
  1344  0726  120A  118A  266E  120A  118A  	xorlw	01h
  1345  072B  3A01               	skipz
  1346  072C  1D03               	goto	u91
  1347  072D  2F2F               	goto	u90
  1348  072E  2F30               u91:
  1349  072F                     	goto	l794
  1350  072F  2F4B               u90:
  1351  0730                     	line	43
  1352                           	
  1353                           l790:	
  1354  0730                     ;main.c: 42:                     {;main.c: 43:                         k1 (0);
  1355                           	movlw	0
  1356  0730  3000               	movwf	(k1@x)
  1357  0731  00F0               	movwf	(k1@x+1)
  1358  0732  00F1               	fcall	_k1
  1359  0733  120A  118A  267A  120A  118A  	line	44
  1360                           ;main.c: 44:                         k2 (0);
  1361                           	movlw	0
  1362  0738  3000               	movwf	(k2@x)
  1363  0739  00F0               	movwf	(k2@x+1)
  1364  073A  00F1               	fcall	_k2
  1365  073B  120A  118A  2682  120A  118A  	line	45
  1366                           ;main.c: 45:                         k3 (0);
  1367                           	movlw	0
  1368  0740  3000               	movwf	(k3@x)
  1369  0741  00F0               	movwf	(k3@x+1)
  1370  0742  00F1               	fcall	_k3
  1371  0743  120A  118A  268A  120A  118A  	line	46
  1372                           	
  1373                           l792:	
  1374  0748                     ;main.c: 46:                         estado = 0;
  1375                           	clrf	(main@estado)
  1376  0748  01F8               	clrf	(main@estado+1)
  1377  0749  01F9               	goto	l794
  1378  074A  2F4B               	line	47
  1379                           ;main.c: 47:                     }
  1380                           	
  1381                           l38:	
  1382  074B                     	line	48
  1383                           	
  1384                           l794:	
  1385  074B                     ;main.c: 48:                     delay(1);
  1386                           	movlw	01h
  1387  074B  3001               	movwf	(delay@t)
  1388  074C  00F0               	movlw	0
  1389  074D  3000               	movwf	((delay@t))+1
  1390  074E  00F1               	fcall	_delay
  1391  074F  120A  118A  26CD  120A  118A  	line	49
  1392                           	
  1393                           l796:	
  1394  0754                     ;main.c: 49:                     if ( --t <= 0 )
  1395                           	movlw	0FFh
  1396  0754  30FF               	addwf	(main@t),f
  1397  0755  07F5               	skipnc
  1398  0756  1803               	incf	(main@t+1),f
  1399  0757  0AF6               	movlw	0FFh
  1400  0758  30FF               	addwf	(main@t+1),f
  1401  0759  07F6               	movf	((main@t+1)),w
  1402  075A  0876               	xorlw	80h
  1403  075B  3A80               	movwf	btemp+1
  1404  075C  00FF               	movlw	(0)^80h
  1405  075D  3080               	subwf	btemp+1,w
  1406  075E  027F               	skipz
  1407  075F  1D03               	goto	u105
  1408  0760  2F63               	movlw	01h
  1409  0761  3001               	subwf	((main@t)),w
  1410  0762  0275               u105:
  1411  0763                     
  1412                           	skipnc
  1413  0763  1803               	goto	u101
  1414  0764  2F66               	goto	u100
  1415  0765  2F67               u101:
  1416  0766                     	goto	l818
  1417  0766  2FD0               u100:
  1418  0767                     	line	50
  1419                           	
  1420                           l798:	
  1421  0767                     ;main.c: 50:                         estado = 3;
  1422                           	movlw	03h
  1423  0767  3003               	movwf	(main@estado)
  1424  0768  00F8               	movlw	0
  1425  0769  3000               	movwf	((main@estado))+1
  1426  076A  00F9               	goto	l818
  1427  076B  2FD0               	
  1428                           l39:	
  1429  076C                     	line	51
  1430                           ;main.c: 51:                     break;
  1431                           	goto	l818
  1432  076C  2FD0               	line	53
  1433                           ;main.c: 53:             case 3:
  1434                           	
  1435                           l40:	
  1436  076D                     	line	54
  1437                           	
  1438                           l800:	
  1439  076D                     ;main.c: 54:                     display7seg(cont);
  1440                           	movf	(main@cont),w
  1441  076D  0877               	movwf	(??_main+0)+0
  1442  076E  00F3               	clrf	(??_main+0)+0+1
  1443  076F  01F4               	movf	0+(??_main+0)+0,w
  1444  0770  0873               	movwf	(display7seg@c)
  1445  0771  00F0               	movf	1+(??_main+0)+0,w
  1446  0772  0874               	movwf	(display7seg@c+1)
  1447  0773  00F1               	fcall	_display7seg
  1448  0774  120A  118A  2692  120A  118A  	line	55
  1449                           	
  1450                           l802:	
  1451  0779                     ;main.c: 55:                     if ( ++cont >= 10 )
  1452                           	movlw	low(01h)
  1453  0779  3001               	movwf	(??_main+0)+0
  1454  077A  00F3               	movf	(??_main+0)+0,w
  1455  077B  0873               	addwf	(main@cont),f
  1456  077C  07F7               	movlw	low(0Ah)
  1457  077D  300A               	subwf	((main@cont)),w
  1458  077E  0277               	skipc
  1459  077F  1C03               	goto	u111
  1460  0780  2F82               	goto	u110
  1461  0781  2F83               u111:
  1462  0782                     	goto	l806
  1463  0782  2F85               u110:
  1464  0783                     	line	56
  1465                           	
  1466                           l804:	
  1467  0783                     ;main.c: 56:                         cont = 0;
  1468                           	clrf	(main@cont)
  1469  0783  01F7               	goto	l806
  1470  0784  2F85               	
  1471                           l41:	
  1472  0785                     	line	57
  1473                           	
  1474                           l806:	
  1475  0785                     ;main.c: 57:                         estado = 4;
  1476                           	movlw	04h
  1477  0785  3004               	movwf	(main@estado)
  1478  0786  00F8               	movlw	0
  1479  0787  3000               	movwf	((main@estado))+1
  1480  0788  00F9               	line	58
  1481                           ;main.c: 58:                     break;
  1482                           	goto	l818
  1483  0789  2FD0               	line	60
  1484                           ;main.c: 60:             case 4:
  1485                           	
  1486                           l42:	
  1487  078A                     	line	61
  1488                           	
  1489                           l808:	
  1490  078A                     ;main.c: 61:                     k1 (1);
  1491                           	movlw	01h
  1492  078A  3001               	movwf	(k1@x)
  1493  078B  00F0               	movlw	0
  1494  078C  3000               	movwf	((k1@x))+1
  1495  078D  00F1               	fcall	_k1
  1496  078E  120A  118A  267A  120A  118A  	line	62
  1497                           ;main.c: 62:                     k2 (0);
  1498                           	movlw	0
  1499  0793  3000               	movwf	(k2@x)
  1500  0794  00F0               	movwf	(k2@x+1)
  1501  0795  00F1               	fcall	_k2
  1502  0796  120A  118A  2682  120A  118A  	line	63
  1503                           ;main.c: 63:                     k3 (1);
  1504                           	movlw	01h
  1505  079B  3001               	movwf	(k3@x)
  1506  079C  00F0               	movlw	0
  1507  079D  3000               	movwf	((k3@x))+1
  1508  079E  00F1               	fcall	_k3
  1509  079F  120A  118A  268A  120A  118A  	line	64
  1510                           ;main.c: 64:                     if ( botao_S0() == 1 )
  1511                           	fcall	_botao_S0
  1512  07A4  120A  118A  266E  120A  118A  	xorlw	01h
  1513  07A9  3A01               	skipz
  1514  07AA  1D03               	goto	u121
  1515  07AB  2FAD               	goto	u120
  1516  07AC  2FAE               u121:
  1517  07AD                     	goto	l818
  1518  07AD  2FD0               u120:
  1519  07AE                     	line	65
  1520                           	
  1521                           l810:	
  1522  07AE                     ;main.c: 65:                         estado = 5;
  1523                           	movlw	05h
  1524  07AE  3005               	movwf	(main@estado)
  1525  07AF  00F8               	movlw	0
  1526  07B0  3000               	movwf	((main@estado))+1
  1527  07B1  00F9               	goto	l818
  1528  07B2  2FD0               	
  1529                           l43:	
  1530  07B3                     	line	66
  1531                           ;main.c: 66:                     break;
  1532                           	goto	l818
  1533  07B3  2FD0               	line	68
  1534                           ;main.c: 68:             case 5:
  1535                           	
  1536                           l44:	
  1537  07B4                     	line	69
  1538                           	
  1539                           l812:	
  1540  07B4                     ;main.c: 69:                     k1 (0);
  1541                           	movlw	0
  1542  07B4  3000               	movwf	(k1@x)
  1543  07B5  00F0               	movwf	(k1@x+1)
  1544  07B6  00F1               	fcall	_k1
  1545  07B7  120A  118A  267A  120A  118A  	line	70
  1546                           ;main.c: 70:                     k2 (0);
  1547                           	movlw	0
  1548  07BC  3000               	movwf	(k2@x)
  1549  07BD  00F0               	movwf	(k2@x+1)
  1550  07BE  00F1               	fcall	_k2
  1551  07BF  120A  118A  2682  120A  118A  	line	71
  1552                           ;main.c: 71:                     k3 (0);
  1553                           	movlw	0
  1554  07C4  3000               	movwf	(k3@x)
  1555  07C5  00F0               	movwf	(k3@x+1)
  1556  07C6  00F1               	fcall	_k3
  1557  07C7  120A  118A  268A  120A  118A  	line	72
  1558                           	
  1559                           l814:	
  1560  07CC                     ;main.c: 72:                     estado = 0;
  1561                           	clrf	(main@estado)
  1562  07CC  01F8               	clrf	(main@estado+1)
  1563  07CD  01F9               	line	73
  1564                           ;main.c: 73:                     break;
  1565                           	goto	l818
  1566  07CE  2FD0               	line	74
  1567                           	
  1568                           l816:	
  1569  07CF                     ;main.c: 74:         }
  1570                           	goto	l818
  1571  07CF  2FD0               	
  1572                           l32:	
  1573  07D0                     	
  1574                           l818:	
  1575  07D0                     	; Switch on 2 bytes has been partitioned into a top level switch of size 1, and 1 sub-s
                                 witches
  1576                           ; Switch size 1, requested type "space"
  1577                           ; Number of cases is 1, Range of values is 0 to 0
  1578                           ; switch strategies available:
  1579                           ; Name         Instructions Cycles
  1580                           ; simple_byte            4     3 (average)
  1581                           ; direct_byte           11     8 (fixed)
  1582                           ; jumptable            260     6 (fixed)
  1583                           ;	Chosen strategy is simple_byte
  1584                           
  1585                           	movf (main@estado+1),w
  1586  07D0  0879               	opt asmopt_push
  1587                           	opt asmopt_off
  1588                           	xorlw	0^0	; case 0
  1589  07D1  3A00               	skipnz
  1590  07D2  1903               	goto	l844
  1591  07D3  2FD5               	goto	l818
  1592  07D4  2FD0               	opt asmopt_pop
  1593                           	
  1594                           l844:	
  1595  07D5                     ; Switch size 1, requested type "space"
  1596                           ; Number of cases is 6, Range of values is 0 to 5
  1597                           ; switch strategies available:
  1598                           ; Name         Instructions Cycles
  1599                           ; simple_byte           19    10 (average)
  1600                           ; direct_byte           26     8 (fixed)
  1601                           ; jumptable            260     6 (fixed)
  1602                           ;	Chosen strategy is simple_byte
  1603                           
  1604                           	movf (main@estado),w
  1605  07D5  0878               	opt asmopt_push
  1606                           	opt asmopt_off
  1607                           	xorlw	0^0	; case 0
  1608  07D6  3A00               	skipnz
  1609  07D7  1903               	goto	l778
  1610  07D8  2EF3               	xorlw	1^0	; case 1
  1611  07D9  3A01               	skipnz
  1612  07DA  1903               	goto	l782
  1613  07DB  2F03               	xorlw	2^1	; case 2
  1614  07DC  3A03               	skipnz
  1615  07DD  1903               	goto	l788
  1616  07DE  2F26               	xorlw	3^2	; case 3
  1617  07DF  3A01               	skipnz
  1618  07E0  1903               	goto	l800
  1619  07E1  2F6D               	xorlw	4^3	; case 4
  1620  07E2  3A07               	skipnz
  1621  07E3  1903               	goto	l808
  1622  07E4  2F8A               	xorlw	5^4	; case 5
  1623  07E5  3A01               	skipnz
  1624  07E6  1903               	goto	l812
  1625  07E7  2FB4               	goto	l818
  1626  07E8  2FD0               	opt asmopt_pop
  1627                           
  1628                           	
  1629                           l35:	
  1630  07E9                     	goto	l818
  1631  07E9  2FD0               	line	75
  1632                           ;main.c: 75:     }
  1633                           	
  1634                           l45:	
  1635  07EA                     	goto	l818
  1636  07EA  2FD0               	
  1637                           l46:	
  1638  07EB                     	line	76
  1639                           	
  1640                           l47:	
  1641  07EB                     	global	start
  1642                           	ljmp	start
  1643  07EB  120A  118A  2800   	opt stack 0
  1644                           GLOBAL	__end_of_main
  1645                           	__end_of_main:
  1646  07EE                     	signat	_main,89
  1647                           	global	_k3
  1648                           
  1649 ;; *************** function _k3 *****************
  1650 ;; Defined at:
  1651 ;;		line 48 in file "contatores.c"
  1652 ;; Parameters:    Size  Location     Type
  1653 ;;  x               2    0[COMMON] int 
  1654 ;; Auto vars:     Size  Location     Type
  1655 ;;		None
  1656 ;; Return value:  Size  Location     Type
  1657 ;;                  1    wreg      void 
  1658 ;; Registers used:
  1659 ;;		wreg, status,0
  1660 ;; Tracked objects:
  1661 ;;		On entry : 0/0
  1662 ;;		On exit  : 0/0
  1663 ;;		Unchanged: 0/0
  1664 ;; Data sizes:     COMMON   BANK0   BANK1   BANK3   BANK2
  1665 ;;      Params:         2       0       0       0       0
  1666 ;;      Locals:         0       0       0       0       0
  1667 ;;      Temps:          0       0       0       0       0
  1668 ;;      Totals:         2       0       0       0       0
  1669 ;;Total ram usage:        2 bytes
  1670 ;; Hardware stack levels used:    1
  1671 ;; This function calls:
  1672 ;;		Nothing
  1673 ;; This function is called by:
  1674 ;;		_main
  1675 ;; This function uses a non-reentrant model
  1676 ;;
  1677                           psect	text1,local,class=CODE,delta=2,merge=1,group=0
  1678                           	file	"contatores.c"
  1679                           	line	48
  1680                           global __ptext1
  1681                           __ptext1:	;psect for function _k3
  1682  068A                     psect	text1
  1683                           	file	"contatores.c"
  1684                           	line	48
  1685                           	global	__size_of_k3
  1686                           	__size_of_k3	equ	__end_of_k3-_k3
  1687  0008                     	
  1688                           _k3:	
  1689  068A                     ;incstack = 0
  1690                           	opt	stack 7
  1691                           ; Regs used in _k3: [wreg+status,0]
  1692                           	line	50
  1693                           	
  1694                           l768:	
  1695  068A                     ;contatores.c: 48: void k3 ( int x );contatores.c: 49: {;contatores.c: 50:     PORTDbits
                                 .RD5 = x;
  1696                           	rrf	(k3@x),w
  1697  068A  0C70               	bcf	status, 5	;RP0=0, select bank0
  1698  068B  1283               	bcf	status, 6	;RP1=0, select bank0
  1699  068C  1303               	skipc
  1700  068D  1C03               	bcf	(8),5	;volatile
  1701  068E  1288               	skipnc
  1702  068F  1803               	bsf	(8),5	;volatile
  1703  0690  1688               	line	51
  1704                           	
  1705                           l71:	
  1706  0691                     	return
  1707  0691  0008               	opt stack 0
  1708                           GLOBAL	__end_of_k3
  1709                           	__end_of_k3:
  1710  0692                     	signat	_k3,4217
  1711                           	global	_k2
  1712                           
  1713 ;; *************** function _k2 *****************
  1714 ;; Defined at:
  1715 ;;		line 43 in file "contatores.c"
  1716 ;; Parameters:    Size  Location     Type
  1717 ;;  x               2    0[COMMON] int 
  1718 ;; Auto vars:     Size  Location     Type
  1719 ;;		None
  1720 ;; Return value:  Size  Location     Type
  1721 ;;                  1    wreg      void 
  1722 ;; Registers used:
  1723 ;;		wreg, status,0
  1724 ;; Tracked objects:
  1725 ;;		On entry : 0/0
  1726 ;;		On exit  : 0/0
  1727 ;;		Unchanged: 0/0
  1728 ;; Data sizes:     COMMON   BANK0   BANK1   BANK3   BANK2
  1729 ;;      Params:         2       0       0       0       0
  1730 ;;      Locals:         0       0       0       0       0
  1731 ;;      Temps:          0       0       0       0       0
  1732 ;;      Totals:         2       0       0       0       0
  1733 ;;Total ram usage:        2 bytes
  1734 ;; Hardware stack levels used:    1
  1735 ;; This function calls:
  1736 ;;		Nothing
  1737 ;; This function is called by:
  1738 ;;		_main
  1739 ;; This function uses a non-reentrant model
  1740 ;;
  1741                           psect	text2,local,class=CODE,delta=2,merge=1,group=0
  1742                           	line	43
  1743                           global __ptext2
  1744                           __ptext2:	;psect for function _k2
  1745  0682                     psect	text2
  1746                           	file	"contatores.c"
  1747                           	line	43
  1748                           	global	__size_of_k2
  1749                           	__size_of_k2	equ	__end_of_k2-_k2
  1750  0008                     	
  1751                           _k2:	
  1752  0682                     ;incstack = 0
  1753                           	opt	stack 7
  1754                           ; Regs used in _k2: [wreg+status,0]
  1755                           	line	45
  1756                           	
  1757                           l766:	
  1758  0682                     ;contatores.c: 43: void k2 ( int x );contatores.c: 44: {;contatores.c: 45:     PORTDbits
                                 .RD6 = x;
  1759                           	rrf	(k2@x),w
  1760  0682  0C70               	bcf	status, 5	;RP0=0, select bank0
  1761  0683  1283               	bcf	status, 6	;RP1=0, select bank0
  1762  0684  1303               	skipc
  1763  0685  1C03               	bcf	(8),6	;volatile
  1764  0686  1308               	skipnc
  1765  0687  1803               	bsf	(8),6	;volatile
  1766  0688  1708               	line	46
  1767                           	
  1768                           l68:	
  1769  0689                     	return
  1770  0689  0008               	opt stack 0
  1771                           GLOBAL	__end_of_k2
  1772                           	__end_of_k2:
  1773  068A                     	signat	_k2,4217
  1774                           	global	_k1
  1775                           
  1776 ;; *************** function _k1 *****************
  1777 ;; Defined at:
  1778 ;;		line 38 in file "contatores.c"
  1779 ;; Parameters:    Size  Location     Type
  1780 ;;  x               2    0[COMMON] int 
  1781 ;; Auto vars:     Size  Location     Type
  1782 ;;		None
  1783 ;; Return value:  Size  Location     Type
  1784 ;;                  1    wreg      void 
  1785 ;; Registers used:
  1786 ;;		wreg, status,0
  1787 ;; Tracked objects:
  1788 ;;		On entry : 0/0
  1789 ;;		On exit  : 0/0
  1790 ;;		Unchanged: 0/0
  1791 ;; Data sizes:     COMMON   BANK0   BANK1   BANK3   BANK2
  1792 ;;      Params:         2       0       0       0       0
  1793 ;;      Locals:         0       0       0       0       0
  1794 ;;      Temps:          0       0       0       0       0
  1795 ;;      Totals:         2       0       0       0       0
  1796 ;;Total ram usage:        2 bytes
  1797 ;; Hardware stack levels used:    1
  1798 ;; This function calls:
  1799 ;;		Nothing
  1800 ;; This function is called by:
  1801 ;;		_main
  1802 ;; This function uses a non-reentrant model
  1803 ;;
  1804                           psect	text3,local,class=CODE,delta=2,merge=1,group=0
  1805                           	line	38
  1806                           global __ptext3
  1807                           __ptext3:	;psect for function _k1
  1808  067A                     psect	text3
  1809                           	file	"contatores.c"
  1810                           	line	38
  1811                           	global	__size_of_k1
  1812                           	__size_of_k1	equ	__end_of_k1-_k1
  1813  0008                     	
  1814                           _k1:	
  1815  067A                     ;incstack = 0
  1816                           	opt	stack 7
  1817                           ; Regs used in _k1: [wreg+status,0]
  1818                           	line	40
  1819                           	
  1820                           l764:	
  1821  067A                     ;contatores.c: 38: void k1 ( int x );contatores.c: 39: {;contatores.c: 40:     PORTDbits
                                 .RD7 = x;
  1822                           	rrf	(k1@x),w
  1823  067A  0C70               	bcf	status, 5	;RP0=0, select bank0
  1824  067B  1283               	bcf	status, 6	;RP1=0, select bank0
  1825  067C  1303               	skipc
  1826  067D  1C03               	bcf	(8),7	;volatile
  1827  067E  1388               	skipnc
  1828  067F  1803               	bsf	(8),7	;volatile
  1829  0680  1788               	line	41
  1830                           	
  1831                           l65:	
  1832  0681                     	return
  1833  0681  0008               	opt stack 0
  1834                           GLOBAL	__end_of_k1
  1835                           	__end_of_k1:
  1836  0682                     	signat	_k1,4217
  1837                           	global	_display7seg
  1838                           
  1839 ;; *************** function _display7seg *****************
  1840 ;; Defined at:
  1841 ;;		line 24 in file "disp7seg.c"
  1842 ;; Parameters:    Size  Location     Type
  1843 ;;  c               2    0[COMMON] int 
  1844 ;; Auto vars:     Size  Location     Type
  1845 ;;		None
  1846 ;; Return value:  Size  Location     Type
  1847 ;;                  1    wreg      void 
  1848 ;; Registers used:
  1849 ;;		wreg, fsr0l, fsr0h, status,2, status,0
  1850 ;; Tracked objects:
  1851 ;;		On entry : 0/0
  1852 ;;		On exit  : 0/0
  1853 ;;		Unchanged: 0/0
  1854 ;; Data sizes:     COMMON   BANK0   BANK1   BANK3   BANK2
  1855 ;;      Params:         2       0       0       0       0
  1856 ;;      Locals:         0       0       0       0       0
  1857 ;;      Temps:          0       0       0       0       0
  1858 ;;      Totals:         2       0       0       0       0
  1859 ;;Total ram usage:        2 bytes
  1860 ;; Hardware stack levels used:    1
  1861 ;; This function calls:
  1862 ;;		Nothing
  1863 ;; This function is called by:
  1864 ;;		_main
  1865 ;; This function uses a non-reentrant model
  1866 ;;
  1867                           psect	text4,local,class=CODE,delta=2,merge=1,group=0
  1868                           	file	"disp7seg.c"
  1869                           	line	24
  1870                           global __ptext4
  1871                           __ptext4:	;psect for function _display7seg
  1872  0692                     psect	text4
  1873                           	file	"disp7seg.c"
  1874                           	line	24
  1875                           	global	__size_of_display7seg
  1876                           	__size_of_display7seg	equ	__end_of_display7seg-_display7seg
  1877  0009                     	
  1878                           _display7seg:	
  1879  0692                     ;incstack = 0
  1880                           	opt	stack 7
  1881                           ; Regs used in _display7seg: [wreg-fsr0h+status,2+status,0]
  1882                           	line	26
  1883                           	
  1884                           l770:	
  1885  0692                     ;disp7seg.c: 24: void display7seg ( int c );disp7seg.c: 25: {;disp7seg.c: 26:     PORTB 
                                 = vetor[c];
  1886                           	movf	(display7seg@c),w
  1887  0692  0870               	addlw	low(_vetor|((0x0)<<8))&0ffh
  1888  0693  3E20               	movwf	fsr0
  1889  0694  0084               	bcf	status, 7	;select IRP bank0
  1890  0695  1383               	movf	indf,w
  1891  0696  0800               	bcf	status, 5	;RP0=0, select bank0
  1892  0697  1283               	bcf	status, 6	;RP1=0, select bank0
  1893  0698  1303               	movwf	(6)	;volatile
  1894  0699  0086               	line	27
  1895                           	
  1896                           l85:	
  1897  069A                     	return
  1898  069A  0008               	opt stack 0
  1899                           GLOBAL	__end_of_display7seg
  1900                           	__end_of_display7seg:
  1901  069B                     	signat	_display7seg,4217
  1902                           	global	_disp7seg_init
  1903                           
  1904 ;; *************** function _disp7seg_init *****************
  1905 ;; Defined at:
  1906 ;;		line 17 in file "disp7seg.c"
  1907 ;; Parameters:    Size  Location     Type
  1908 ;;		None
  1909 ;; Auto vars:     Size  Location     Type
  1910 ;;		None
  1911 ;; Return value:  Size  Location     Type
  1912 ;;                  1    wreg      void 
  1913 ;; Registers used:
  1914 ;;		status,2
  1915 ;; Tracked objects:
  1916 ;;		On entry : 0/0
  1917 ;;		On exit  : 0/0
  1918 ;;		Unchanged: 0/0
  1919 ;; Data sizes:     COMMON   BANK0   BANK1   BANK3   BANK2
  1920 ;;      Params:         0       0       0       0       0
  1921 ;;      Locals:         0       0       0       0       0
  1922 ;;      Temps:          0       0       0       0       0
  1923 ;;      Totals:         0       0       0       0       0
  1924 ;;Total ram usage:        0 bytes
  1925 ;; Hardware stack levels used:    1
  1926 ;; This function calls:
  1927 ;;		Nothing
  1928 ;; This function is called by:
  1929 ;;		_main
  1930 ;; This function uses a non-reentrant model
  1931 ;;
  1932                           psect	text5,local,class=CODE,delta=2,merge=1,group=0
  1933                           	line	17
  1934                           global __ptext5
  1935                           __ptext5:	;psect for function _disp7seg_init
  1936  069B                     psect	text5
  1937                           	file	"disp7seg.c"
  1938                           	line	17
  1939                           	global	__size_of_disp7seg_init
  1940                           	__size_of_disp7seg_init	equ	__end_of_disp7seg_init-_disp7seg_init
  1941  000A                     	
  1942                           _disp7seg_init:	
  1943  069B                     ;incstack = 0
  1944                           	opt	stack 7
  1945                           ; Regs used in _disp7seg_init: [status,2]
  1946                           	line	19
  1947                           	
  1948                           l668:	
  1949  069B                     ;disp7seg.c: 19:     ANSELH = 0;
  1950                           	bsf	status, 5	;RP0=1, select bank3
  1951  069B  1683               	bsf	status, 6	;RP1=1, select bank3
  1952  069C  1703               	clrf	(393)^0180h	;volatile
  1953  069D  0189               	line	20
  1954                           ;disp7seg.c: 20:     TRISB = 0;
  1955                           	bsf	status, 5	;RP0=1, select bank1
  1956  069E  1683               	bcf	status, 6	;RP1=0, select bank1
  1957  069F  1303               	clrf	(134)^080h	;volatile
  1958  06A0  0186               	line	21
  1959                           ;disp7seg.c: 21:     PORTB = 0;
  1960                           	bcf	status, 5	;RP0=0, select bank0
  1961  06A1  1283               	bcf	status, 6	;RP1=0, select bank0
  1962  06A2  1303               	clrf	(6)	;volatile
  1963  06A3  0186               	line	22
  1964                           	
  1965                           l82:	
  1966  06A4                     	return
  1967  06A4  0008               	opt stack 0
  1968                           GLOBAL	__end_of_disp7seg_init
  1969                           	__end_of_disp7seg_init:
  1970  06A5                     	signat	_disp7seg_init,89
  1971                           	global	_delay
  1972                           
  1973 ;; *************** function _delay *****************
  1974 ;; Defined at:
  1975 ;;		line 13 in file "delay.c"
  1976 ;; Parameters:    Size  Location     Type
  1977 ;;  t               2    0[COMMON] unsigned int 
  1978 ;; Auto vars:     Size  Location     Type
  1979 ;;		None
  1980 ;; Return value:  Size  Location     Type
  1981 ;;                  1    wreg      void 
  1982 ;; Registers used:
  1983 ;;		wreg, status,2, status,0
  1984 ;; Tracked objects:
  1985 ;;		On entry : 0/0
  1986 ;;		On exit  : 0/0
  1987 ;;		Unchanged: 0/0
  1988 ;; Data sizes:     COMMON   BANK0   BANK1   BANK3   BANK2
  1989 ;;      Params:         2       0       0       0       0
  1990 ;;      Locals:         0       0       0       0       0
  1991 ;;      Temps:          1       0       0       0       0
  1992 ;;      Totals:         3       0       0       0       0
  1993 ;;Total ram usage:        3 bytes
  1994 ;; Hardware stack levels used:    1
  1995 ;; This function calls:
  1996 ;;		Nothing
  1997 ;; This function is called by:
  1998 ;;		_main
  1999 ;; This function uses a non-reentrant model
  2000 ;;
  2001                           psect	text6,local,class=CODE,delta=2,merge=1,group=0
  2002                           	file	"delay.c"
  2003                           	line	13
  2004                           global __ptext6
  2005                           __ptext6:	;psect for function _delay
  2006  06CD                     psect	text6
  2007                           	file	"delay.c"
  2008                           	line	13
  2009                           	global	__size_of_delay
  2010                           	__size_of_delay	equ	__end_of_delay-_delay
  2011  0017                     	
  2012                           _delay:	
  2013  06CD                     ;incstack = 0
  2014                           	opt	stack 7
  2015                           ; Regs used in _delay: [wreg+status,2+status,0]
  2016                           	line	15
  2017                           	
  2018                           l758:	
  2019  06CD                     ;delay.c: 13: void delay ( unsigned int t );delay.c: 14: {;delay.c: 15:     while ( t )

  2020                           	goto	l762
  2021  06CD  2EDC               	
  2022                           l6:	
  2023  06CE                     	line	17
  2024                           	
  2025                           l760:	
  2026  06CE                     ;delay.c: 16:     {;delay.c: 17:         --t;
  2027                           	movlw	01h
  2028  06CE  3001               	subwf	(delay@t),f
  2029  06CF  02F0               	movlw	0
  2030  06D0  3000               	skipc
  2031  06D1  1C03               	decf	(delay@t+1),f
  2032  06D2  03F1               	subwf	(delay@t+1),f
  2033  06D3  02F1               	line	18
  2034                           ;delay.c: 18:         _delay((unsigned long)((1)*(4000000/4000.0)));
  2035                           	opt asmopt_push
  2036                           opt asmopt_off
  2037                           	movlw	199
  2038  06D4  30C7               movwf	((??_delay+0)+0),f
  2039  06D5  00F2               	u137:
  2040  06D6                     	nop2
  2041  06D6  2ED7               decfsz	(??_delay+0)+0,f
  2042  06D7  0BF2               	goto	u137
  2043  06D8  2ED6               	nop2
  2044  06D9  2EDA               	nop2
  2045  06DA  2EDB               opt asmopt_pop
  2046                           
  2047                           	goto	l762
  2048  06DB  2EDC               	line	19
  2049                           ;delay.c: 19:     }
  2050                           	
  2051                           l5:	
  2052  06DC                     	line	15
  2053                           	
  2054                           l762:	
  2055  06DC                     ;delay.c: 15:     while ( t )
  2056                           	movf	((delay@t)),w
  2057  06DC  0870               iorwf	((delay@t+1)),w
  2058  06DD  0471               	btfss	status,2
  2059  06DE  1D03               	goto	u71
  2060  06DF  2EE1               	goto	u70
  2061  06E0  2EE2               u71:
  2062  06E1                     	goto	l760
  2063  06E1  2ECE               u70:
  2064  06E2                     	goto	l8
  2065  06E2  2EE3               	
  2066                           l7:	
  2067  06E3                     	line	20
  2068                           	
  2069                           l8:	
  2070  06E3                     	return
  2071  06E3  0008               	opt stack 0
  2072                           GLOBAL	__end_of_delay
  2073                           	__end_of_delay:
  2074  06E4                     	signat	_delay,4217
  2075                           	global	_contatores_init
  2076                           
  2077 ;; *************** function _contatores_init *****************
  2078 ;; Defined at:
  2079 ;;		line 18 in file "contatores.c"
  2080 ;; Parameters:    Size  Location     Type
  2081 ;;		None
  2082 ;; Auto vars:     Size  Location     Type
  2083 ;;		None
  2084 ;; Return value:  Size  Location     Type
  2085 ;;                  1    wreg      void 
  2086 ;; Registers used:
  2087 ;;		status,2
  2088 ;; Tracked objects:
  2089 ;;		On entry : 0/0
  2090 ;;		On exit  : 0/0
  2091 ;;		Unchanged: 0/0
  2092 ;; Data sizes:     COMMON   BANK0   BANK1   BANK3   BANK2
  2093 ;;      Params:         0       0       0       0       0
  2094 ;;      Locals:         0       0       0       0       0
  2095 ;;      Temps:          0       0       0       0       0
  2096 ;;      Totals:         0       0       0       0       0
  2097 ;;Total ram usage:        0 bytes
  2098 ;; Hardware stack levels used:    1
  2099 ;; This function calls:
  2100 ;;		Nothing
  2101 ;; This function is called by:
  2102 ;;		_main
  2103 ;; This function uses a non-reentrant model
  2104 ;;
  2105                           psect	text7,local,class=CODE,delta=2,merge=1,group=0
  2106                           	file	"contatores.c"
  2107                           	line	18
  2108                           global __ptext7
  2109                           __ptext7:	;psect for function _contatores_init
  2110  06AF                     psect	text7
  2111                           	file	"contatores.c"
  2112                           	line	18
  2113                           	global	__size_of_contatores_init
  2114                           	__size_of_contatores_init	equ	__end_of_contatores_init-_contatores_init
  2115  000B                     	
  2116                           _contatores_init:	
  2117  06AF                     ;incstack = 0
  2118                           	opt	stack 7
  2119                           ; Regs used in _contatores_init: [status,2]
  2120                           	line	20
  2121                           	
  2122                           l664:	
  2123  06AF                     ;contatores.c: 20:     TRISDbits.TRISD0 = 1;
  2124                           	bsf	status, 5	;RP0=1, select bank1
  2125  06AF  1683               	bcf	status, 6	;RP1=0, select bank1
  2126  06B0  1303               	bsf	(136)^080h,0	;volatile
  2127  06B1  1408               	line	21
  2128                           ;contatores.c: 21:     TRISDbits.TRISD1 = 1;
  2129                           	bsf	(136)^080h,1	;volatile
  2130  06B2  1488               	line	22
  2131                           ;contatores.c: 22:     TRISDbits.TRISD7 = 0;
  2132                           	bcf	(136)^080h,7	;volatile
  2133  06B3  1388               	line	23
  2134                           ;contatores.c: 23:     TRISDbits.TRISD6 = 0;
  2135                           	bcf	(136)^080h,6	;volatile
  2136  06B4  1308               	line	24
  2137                           ;contatores.c: 24:     TRISDbits.TRISD5 = 0;
  2138                           	bcf	(136)^080h,5	;volatile
  2139  06B5  1288               	line	25
  2140                           	
  2141                           l666:	
  2142  06B6                     ;contatores.c: 25:     PORTD = 0;
  2143                           	bcf	status, 5	;RP0=0, select bank0
  2144  06B6  1283               	bcf	status, 6	;RP1=0, select bank0
  2145  06B7  1303               	clrf	(8)	;volatile
  2146  06B8  0188               	line	26
  2147                           	
  2148                           l56:	
  2149  06B9                     	return
  2150  06B9  0008               	opt stack 0
  2151                           GLOBAL	__end_of_contatores_init
  2152                           	__end_of_contatores_init:
  2153  06BA                     	signat	_contatores_init,89
  2154                           	global	_botao_S1
  2155                           
  2156 ;; *************** function _botao_S1 *****************
  2157 ;; Defined at:
  2158 ;;		line 28 in file "contatores.c"
  2159 ;; Parameters:    Size  Location     Type
  2160 ;;		None
  2161 ;; Auto vars:     Size  Location     Type
  2162 ;;		None
  2163 ;; Return value:  Size  Location     Type
  2164 ;;                  1    wreg      unsigned char 
  2165 ;; Registers used:
  2166 ;;		wreg, status,2, status,0
  2167 ;; Tracked objects:
  2168 ;;		On entry : 0/0
  2169 ;;		On exit  : 0/0
  2170 ;;		Unchanged: 0/0
  2171 ;; Data sizes:     COMMON   BANK0   BANK1   BANK3   BANK2
  2172 ;;      Params:         0       0       0       0       0
  2173 ;;      Locals:         0       0       0       0       0
  2174 ;;      Temps:          0       0       0       0       0
  2175 ;;      Totals:         0       0       0       0       0
  2176 ;;Total ram usage:        0 bytes
  2177 ;; Hardware stack levels used:    1
  2178 ;; This function calls:
  2179 ;;		Nothing
  2180 ;; This function is called by:
  2181 ;;		_main
  2182 ;; This function uses a non-reentrant model
  2183 ;;
  2184                           psect	text8,local,class=CODE,delta=2,merge=1,group=0
  2185                           	line	28
  2186                           global __ptext8
  2187                           __ptext8:	;psect for function _botao_S1
  2188  0674                     psect	text8
  2189                           	file	"contatores.c"
  2190                           	line	28
  2191                           	global	__size_of_botao_S1
  2192                           	__size_of_botao_S1	equ	__end_of_botao_S1-_botao_S1
  2193  0006                     	
  2194                           _botao_S1:	
  2195  0674                     ;incstack = 0
  2196                           	opt	stack 7
  2197                           ; Regs used in _botao_S1: [wreg+status,2+status,0]
  2198                           	line	30
  2199                           	
  2200                           l670:	
  2201  0674                     ;contatores.c: 30:     return (PORTDbits.RD1);
  2202                           	bcf	status, 5	;RP0=0, select bank0
  2203  0674  1283               	bcf	status, 6	;RP1=0, select bank0
  2204  0675  1303               	rrf	(8),w	;volatile
  2205  0676  0C08               	andlw	(1<<1)-1
  2206  0677  3901               	goto	l59
  2207  0678  2E79               	
  2208                           l672:	
  2209  0679                     	line	31
  2210                           	
  2211                           l59:	
  2212  0679                     	return
  2213  0679  0008               	opt stack 0
  2214                           GLOBAL	__end_of_botao_S1
  2215                           	__end_of_botao_S1:
  2216  067A                     	signat	_botao_S1,89
  2217                           	global	_botao_S0
  2218                           
  2219 ;; *************** function _botao_S0 *****************
  2220 ;; Defined at:
  2221 ;;		line 33 in file "contatores.c"
  2222 ;; Parameters:    Size  Location     Type
  2223 ;;		None
  2224 ;; Auto vars:     Size  Location     Type
  2225 ;;		None
  2226 ;; Return value:  Size  Location     Type
  2227 ;;                  1    wreg      unsigned char 
  2228 ;; Registers used:
  2229 ;;		wreg, status,2, status,0
  2230 ;; Tracked objects:
  2231 ;;		On entry : 0/0
  2232 ;;		On exit  : 0/0
  2233 ;;		Unchanged: 0/0
  2234 ;; Data sizes:     COMMON   BANK0   BANK1   BANK3   BANK2
  2235 ;;      Params:         0       0       0       0       0
  2236 ;;      Locals:         0       0       0       0       0
  2237 ;;      Temps:          0       0       0       0       0
  2238 ;;      Totals:         0       0       0       0       0
  2239 ;;Total ram usage:        0 bytes
  2240 ;; Hardware stack levels used:    1
  2241 ;; This function calls:
  2242 ;;		Nothing
  2243 ;; This function is called by:
  2244 ;;		_main
  2245 ;; This function uses a non-reentrant model
  2246 ;;
  2247                           psect	text9,local,class=CODE,delta=2,merge=1,group=0
  2248                           	line	33
  2249                           global __ptext9
  2250                           __ptext9:	;psect for function _botao_S0
  2251  066E                     psect	text9
  2252                           	file	"contatores.c"
  2253                           	line	33
  2254                           	global	__size_of_botao_S0
  2255                           	__size_of_botao_S0	equ	__end_of_botao_S0-_botao_S0
  2256  0006                     	
  2257                           _botao_S0:	
  2258  066E                     ;incstack = 0
  2259                           	opt	stack 7
  2260                           ; Regs used in _botao_S0: [wreg+status,2+status,0]
  2261                           	line	35
  2262                           	
  2263                           l680:	
  2264  066E                     ;contatores.c: 35:     return (PORTDbits.RD0);
  2265                           	bcf	status, 5	;RP0=0, select bank0
  2266  066E  1283               	bcf	status, 6	;RP1=0, select bank0
  2267  066F  1303               	movf	(8),w	;volatile
  2268  0670  0808               	andlw	(1<<1)-1
  2269  0671  3901               	goto	l62
  2270  0672  2E73               	
  2271                           l682:	
  2272  0673                     	line	36
  2273                           	
  2274                           l62:	
  2275  0673                     	return
  2276  0673  0008               	opt stack 0
  2277                           GLOBAL	__end_of_botao_S0
  2278                           	__end_of_botao_S0:
  2279  0674                     	signat	_botao_S0,89
  2280                           global	___latbits
  2281                           ___latbits	equ	2
  2282  0002                     	global	btemp
  2283                           	btemp set 07Eh
  2284  007E                     
  2285                           	DABS	1,126,2	;btemp
  2286                           	global	wtemp0
  2287                           	wtemp0 set btemp+0
  2288  007E                     	end


Data Sizes:
    Strings     0
    Constant    0
    Data        10
    BSS         0
    Persistent  0
    Stack       0

Auto Spaces:
    Space          Size  Autos    Used
    COMMON           14     10      10
    BANK0            80      0      10
    BANK1            80      0       0
    BANK3            96      0       0
    BANK2            96      0       0

Pointer List with Targets:

    None.

Critical Paths under _main in COMMON

    _main->_delay

Critical Paths under _main in BANK0

    None.

Critical Paths under _main in BANK1

    None.

Critical Paths under _main in BANK3

    None.

Critical Paths under _main in BANK2

    None.

Call Graph Tables:

 ---------------------------------------------------------------------------------
 (Depth) Function   	        Calls       Base Space   Used Autos Params    Refs
 ---------------------------------------------------------------------------------
 (0) _main                                                 7     7      0    1274
                                              3 COMMON     7     7      0
                           _botao_S0
                           _botao_S1
                    _contatores_init
                              _delay
                      _disp7seg_init
                        _display7seg
                                 _k1
                                 _k2
                                 _k3
 ---------------------------------------------------------------------------------
 (1) _k3                                                   2     0      2     326
                                              0 COMMON     2     0      2
 ---------------------------------------------------------------------------------
 (1) _k2                                                   2     0      2     326
                                              0 COMMON     2     0      2
 ---------------------------------------------------------------------------------
 (1) _k1                                                   2     0      2     326
                                              0 COMMON     2     0      2
 ---------------------------------------------------------------------------------
 (1) _display7seg                                          2     0      2      98
                                              0 COMMON     2     0      2
 ---------------------------------------------------------------------------------
 (1) _disp7seg_init                                        0     0      0       0
 ---------------------------------------------------------------------------------
 (1) _delay                                                3     1      2      99
                                              0 COMMON     3     1      2
 ---------------------------------------------------------------------------------
 (1) _contatores_init                                      0     0      0       0
 ---------------------------------------------------------------------------------
 (1) _botao_S1                                             0     0      0       0
 ---------------------------------------------------------------------------------
 (1) _botao_S0                                             0     0      0       0
 ---------------------------------------------------------------------------------
 Estimated maximum stack depth 1
 ---------------------------------------------------------------------------------

 Call Graph Graphs:

 _main (ROOT)
   _botao_S0
   _botao_S1
   _contatores_init
   _delay
   _disp7seg_init
   _display7seg
   _k1
   _k2
   _k3

 Address spaces:
Name               Size   Autos  Total    Cost      Usage
BANK3               60      0       0       9        0.0%
BITBANK3            60      0       0       8        0.0%
SFR3                 0      0       0       4        0.0%
BITSFR3              0      0       0       4        0.0%
BANK2               60      0       0      11        0.0%
BITBANK2            60      0       0      10        0.0%
SFR2                 0      0       0       5        0.0%
BITSFR2              0      0       0       5        0.0%
BANK1               50      0       0       7        0.0%
BITBANK1            50      0       0       6        0.0%
SFR1                 0      0       0       2        0.0%
BITSFR1              0      0       0       2        0.0%
BANK0               50      0       A       5       12.5%
BITBANK0            50      0       0       4        0.0%
SFR0                 0      0       0       1        0.0%
BITSFR0              0      0       0       1        0.0%
COMMON               E      A       A       1       71.4%
BITCOMMON            E      0       0       0        0.0%
CODE                 0      0       0       0        0.0%
DATA                 0      0      14      12        0.0%
ABS                  0      0      14       3        0.0%
NULL                 0      0       0       0        0.0%
STACK                0      0       0       2        0.0%
EEDATA             100      0       0       0        0.0%


Microchip Technology PIC Macro Assembler V2.00 build -1524193055 
Symbol Table                                                                                   Thu Mar 04 15:41:41 2021

                       l5 06DC                         l6 06CE                         l7 06E3  
                       l8 06E3              ?_display7seg 0070                         pc 0002  
             __CFG_CP$OFF 0000                        l31 06F2                        l32 07D0  
                      l40 076D                        l41 0785                        l33 06F3  
                      l42 078A                        l34 0702                        l35 07E9  
                      l43 07B3                        l44 07B4                        l36 0703  
                      l45 07EA                        l37 0726                        l62 0673  
                      l46 07EB                        l38 074B                        l71 0691  
                      l47 07EB                        l39 076C                        l56 06B9  
                      l65 0681                        l82 06A4                        l59 0679  
                      l68 0689                        l85 069A                        u70 06E2  
                      u71 06E1                        u80 06FD                        u81 06FC  
                      u90 0730                        u91 072F                        _k1 067A  
                      _k2 0682                        _k3 068A                        fsr 0004  
                     ?_k1 0070                       ?_k2 0070                       ?_k3 0070  
                     l800 076D                       l810 07AE                       l802 0779  
                     l812 07B4                       l804 0783                       l670 0674  
                     l814 07CC                       l806 0785                       l680 066E  
                     l672 0679                       l664 06AF                       l760 06CE  
                     l816 07CF                       l808 078A                       l682 0673  
                     l666 06B6                       l762 06DC                       l770 0692  
                     l818 07D0                       l668 069B                       l764 067A  
                     l844 07D5                       l780 06FD                       l772 06E4  
                     l758 06CD                       l766 0682                       l790 0730  
                     l782 0703                       l774 06EE                       l768 068A  
                     l792 0748                       l784 071D                       l776 06F0  
                     l794 074B                       l786 0721                       l778 06F3  
                     l796 0754                       l788 0726                       l798 0767  
                     u100 0767                       u101 0766                       u110 0783  
                     u111 0782                       u120 07AE                       u121 07AD  
                     u105 0763                       u137 06D6              __CFG_CPD$OFF 0000  
                     k1@x 0070                       k2@x 0070                       k3@x 0070  
                     fsr0 0004                       indf 0000                      ??_k1 0072  
                    ??_k2 0072                      ??_k3 0072              __CFG_LVP$OFF 0000  
            __CFG_WRT$OFF 0000                      _main 06E4                      btemp 007E  
                    start 0000             __CFG_IESO$OFF 0000                     ?_main 0070  
           __CFG_WDTE$OFF 0000                     _PORTB 0006                     _PORTD 0008  
                   _TRISB 0086              display7seg@c 0070            __CFG_FCMEN$OFF 0000  
                   _delay 06CD                     _vetor 0020                     main@t 0075  
          __CFG_BOREN$OFF 0000                     pclath 000A                     status 0003  
                   wtemp0 007E            __CFG_MCLRE$OFF 0000           __initialization 07EE  
            __end_of_main 07EE                    ??_main 0073                    ?_delay 0070  
                  _ANSELH 0189            __CFG_PWRTE$OFF 0000          __end_of_botao_S0 0674  
        __end_of_botao_S1 067A                    delay@t 0070      __size_of_display7seg 0009  
         _contatores_init 06AF   __end_of__initialization 07FC            __pcstackCOMMON 0070  
            __pidataBANK0 06A5             __end_of_delay 06E4                __end_of_k1 0682  
              __end_of_k2 068A                __end_of_k3 0692                   ??_delay 0072  
   __end_of_disp7seg_init 06A5                __pmaintext 06E4   __end_of_contatores_init 06BA  
               ?_botao_S0 0070                 ?_botao_S1 0070                   __ptext1 068A  
                 __ptext2 0682                   __ptext3 067A                   __ptext4 0692  
                 __ptext5 069B                   __ptext6 06CD                   __ptext7 06AF  
                 __ptext8 0674                   __ptext9 066E                ??_botao_S0 0070  
              ??_botao_S1 0070      end_of_initialization 07FC                 _PORTDbits 0008  
        ?_contatores_init 0070                 _TRISDbits 0088                main@estado 0078  
           ??_display7seg 0072       start_initialization 07EE  __CFG_FOSC$INTRC_NOCLKOUT 0000  
              init_fetch0 06BA               __pdataBANK0 0020       __end_of_display7seg 069B  
               ___latbits 0002         __size_of_botao_S0 0006         __size_of_botao_S1 0006  
  __size_of_disp7seg_init 000A            __size_of_delay 0017               __size_of_k1 0008  
             __size_of_k2 0008               __size_of_k3 0008               _display7seg 0692  
           _disp7seg_init 069B         __CFG_BOR4V$BOR40V 0000            ?_disp7seg_init 0070  
                _botao_S0 066E                  _botao_S1 0674  __size_of_contatores_init 000B  
           __size_of_main 010A                  main@cont 0077                  init_ram0 06BE  
         ??_disp7seg_init 0070         ??_contatores_init 0070  
